(lp0
S'HOUSE'
p1
acpygame
__rect_constructor
p2
(I800
I2400
I192
I160
tp3
Rp4
a.(lp0
S'HOUSE'
p1
acpygame
__rect_constructor
p2
(I400
I300
I192
I160
tp3
Rp4
a.(lp0
S'HOUSE'
p1
acpygame
__rect_constructor
p2
(I400
I600
I192
I160
tp3
Rp4
a.(lp0
S'HOUSE'
p1
acpygame
__rect_constructor
p2
(I700
I0
I192
I160
tp3
Rp4
a.(lp0
S'HOUSE'
p1
acpygame
__rect_constructor
p2
(I700
I300
I192
I160
tp3
Rp4
a.(lp0
S'HOUSE'
p1
acpygame
__rect_constructor
p2
(I700
I600
I192
I160
tp3
Rp4
a.(lp0
S'HOUSE'
p1
acpygame
__rect_constructor
p2
(I1100
I0
I192
I160
tp3
Rp4
a.(lp0
S'HOSPITAL'
p1
acpygame
__rect_constructor
p2
(I400
I1000
I160
I164
tp3
Rp4
a.(lp0
S'HOSPITAL'
p1
acpygame
__rect_constructor
p2
(I800
I1000
I160
I164
tp3
Rp4
a.(lp0
S'HOSPITAL'
p1
acpygame
__rect_constructor
p2
(I1200
I1000
I160
I164
tp3
Rp4
a.(lp0
S'WORKSHOP'
p1
acpygame
__rect_constructor
p2
(I1200
I100
I250
I200
tp3
Rp4
a.(lp0
S'WORKSHOP'
p1
acpygame
__rect_constructor
p2
(I1200
I500
I250
I200
tp3
Rp4
a.(lp0
S'SCHOOL'
p1
acpygame
__rect_constructor
p2
(I1800
I100
I150
I140
tp3
Rp4
a.(lp0
S'SCHOOL'
p1
acpygame
__rect_constructor
p2
(I1800
I550
I192
I160
tp3
Rp4
a.(lp0
S'FARM'
p1
acpygame
__rect_constructor
p2
(I400
I1500
I284
I220
tp3
Rp4
a.(lp0
S'FARM'
p1
acpygame
__rect_constructor
p2
(I100
I600
I284
I220
tp3
Rp4
a.(lp0
S'FOUNTAIN'
p1
acpygame
__rect_constructor
p2
(I600
I2400
I109
I84
tp3
Rp4
a.(lp0
S'FOUNTAIN'
p1
acpygame
__rect_constructor
p2
(I600
I3000
I109
I84
tp3
Rp4
a.