(lp0
S'HOUSE'
p1
acpygame
__rect_constructor
p2
(I846
I2446
I192
I160
tp3
Rp4
a.(lp0
S'HOUSE'
p1
acpygame
__rect_constructor
p2
(I650
I1726
I192
I160
tp3
Rp4
a.(lp0
S'HOUSE'
p1
acpygame
__rect_constructor
p2
(I168
I1964
I192
I160
tp3
Rp4
a.(lp0
S'FOUNTAIN'
p1
acpygame
__rect_constructor
p2
(I1256
I1796
I102
I87
tp3
Rp4
a.(lp0
S'FOUNTAIN'
p1
acpygame
__rect_constructor
p2
(I1632
I1868
I102
I87
tp3
Rp4
a.(lp0
S'SCHOOL'
p1
acpygame
__rect_constructor
p2
(I300
I2592
I240
I186
tp3
Rp4
a.(lp0
S'HOUSE'
p1
acpygame
__rect_constructor
p2
(I1796
I2440
I192
I160
tp3
Rp4
a.(lp0
S'HOUSE'
p1
acpygame
__rect_constructor
p2
(I2440
I1864
I192
I160
tp3
Rp4
a.(lp0
S'HOSPITAL'
p1
acpygame
__rect_constructor
p2
(I2046
I2056
I160
I164
tp3
Rp4
a.