(lp0
S'action'
p1
a(lp2
I7
aS'Hait\xc3\xad es un pa\xc3\xads caribe\xc3\xb1o. Junto a Rep\xc3\xbablica Dominicana, ocupa la isla La Espa\xc3\xb1ola, en el archipelago mayor de las Antillas. El \xc3\xa1rea total de Hait\xc3\xad es de 27.750 kil\xc3\xb3metros cuadrados y su capital es Puerto Pr\xc3\xadncipe. Fue la primera naci\xc3\xb3n independiente de Am\xc3\xa9rica Latina y la primera rep\xc3\xbablica en el mundo en ser dirigido por un ser humano de raza negra cuando tras una rebeli\xc3\xb3n exitosa de esclavos en 1804.'
p3
aa.(lp0
S'action'
p1
a(lp2
I4
aS''
p3
aa.(lp0
S'action'
p1
a(lp2
I1
a(lp3
(lp4
S'Gilbert Fernandez'
p5
aS'La ciudad de Hait\xc3\xad ha sido golpeado por un catastr\xc3\xb3fico terremoto de magnitud 7.0'
p6
aS'Stevenson Gorbachev'
p7
aS'Muchas edificaciones notables, tales como el Palacio Presidencial, la Asamblea Nacional, la catedral de Puerto Pr\xc3\xadncipe, la principal c\xc3\xa1rcel est\xc3\xa1n completamente destruidas. Muchas figuras p\xc3\xbablicas tambi\xc3\xa9n son v\xc3\xadctimas de este terremoto \xe2\x80\x98'
p8
ag5
aS'Hait\xc3\xad no es capaz de recuperarse por s\xc3\xad sola de este desastre'
p9
ag7
aS'Hemos pedido ayuda a nuestros pa\xc3\xadses vecinos. Espero que seamos capaces de superar estos tiempos oscuros con su apoyo'
p10
aaS'earthquake_st.png'
p11
aaa.(lp0
S'action'
p1
a(lp2
I7
aS'Hait\xc3\xad ha sido golpeado por un terremoto que ha destruido la mayor parte de los edificios y deterior\xc3\xb3 gravemente la situaci\xc3\xb3n de la ciudad. Varios equipos se han enviado por diferentes pa\xc3\xadses para atender la situaci\xc3\xb3n y ayudar en todo lo que can. Tu, siendo la jefatura de la ciudad, tienen que trabajar en colaboraci\xc3\xb3n con todos los equipos enviados para su ayuda y garantizar la restauraci\xc3\xb3n de la paz en la ciudad.'
p3
aa.(lp0
S'action'
p1
a(lp2
I1
a(lp3
(lp4
S'Stevenson Gorbachev'
p5
aS'El terremoto ha destruido todo.'
p6
aS'Tony Peralta'
p7
aS'En este momento es necesario que se relocalicen los sobrevivientes o la gente que ha quedado aislada debido all bloqueo de carreteras, y se les suministre alimentos y medicinas.'
p8
aS'Ragnar Stefansson'
p9
aS' Las v\xc3\xadas de acceso m\xc3\xa1s importantes de la ciudad est\xc3\xa1n bloqueadas y hemos comenzado a trabajar en ello, pero nos tomar\xc3\xa1 algunos d\xc3\xadas para volver a la normalidad '
p10
ag5
aS' Hasta entonces , debemos hacer algo para ayudar a los sobrevivientes. '
p11
ag7
aS'La ciudad tambi\xc3\xa9n necesita m\xc3\xa1s hospitales, ya que s\xc3\xb3lo hay un hospital en pleno funcionamiento en la ciudad y est\xc3\xa1 saturado. Hay cientos de heridos.'
p12
aaS'haiti.png'
p13
aaa.(lp0
S'action'
p1
a(lp2
I9
aS'Granjas y Hospitales ayudan a aumentar la barra de progreso de nutici\xc3\xb3n y de salud.'
p3
aa.(lp0
S'action'
p1
a(lp2
I9
aS'La misi\xc3\xb3n es proporcionar alimentos y medicamentos a las instalaciones de los sobrevivientes. Aumenta las barras de progreso de la nutrici\xc3\xb3n y la salud a 30% en un lapso de 2 semanas.'
p3
aa.(lp0
S'condition'
p1
a(lp2
S'NOR'
p3
aI14
a(lp4
(lp5
I00
aI3
aS''
p6
ag6
aS'>='
p7
aS'HEALTH'
p8
aI0
aaaa.(lp0
S'actionFalse'
p1
a(lp2
I8
aS'No fuiste capaz de mantener las barras por sobre ell 30%. No has podido salvar al pueblo. Debes reintentar este nivel para seguir al siguiente'
p3
aa.(lp0
S'actionFalse'
p1
a(lp2
I3
aS''
p3
aa.(lp0
S'condition'
p1
a(lp2
S'NOR'
p3
aI1
a(lp4
(lp5
I00
aI3
aS''
p6
ag6
aS'>='
p7
aS'HEALTH'
p8
aI30
aa(lp9
I00
aI3
ag6
ag6
ag7
aS'NUTRITION'
p10
aI30
aaaa.(lp0
S'actionTrue'
p1
a(lp2
I7
aS'Haz tenido \xc3\xa9xito en el primer paso hacia la resurrecci\xc3\xb3n de la ciudad'
p3
aa.(lp0
S'actionTrue'
p1
a(lp2
I2
aS''
p3
aa.(lp0
S'actionFalse'
p1
a(lp2
I8
aS'No fuiste capaz de mantener las barras por sobre ell 30%.  No has podido salvar al pueblo. Debes reintentar este nivel para seguir al siguiente'
p3
aa.(lp0
S'actionFalse'
p1
a(lp2
I3
aS''
p3
aa.(lp0
S'action'
p1
a(lp2
I1
a(lp3
(lp4
S'Tony Peralta'
p5
aS' Grandes cantidades de suministros de alimentos han sido recogidos en Puerto Pr\xc3\xadncipe y un gran n\xc3\xbamero de m\xc3\xb3dulos de atenci\xc3\xb3n m\xc3\xa9dica m\xc3\xb3vil, enviados por varios pa\xc3\xadses, est\xc3\xa1n trabajando con las personas heridas'
p6
aS'Ragnar Stefansson'
p7
aS'Cerca del 90% de los edificios en la ciudad han sido destruidos y la gente vive en condiciones de hacinamiento. Hay que hacer algo '
p8
aS'Stevenson Gorbachev'
p9
aS'Tenemos que empezar a construir m\xc3\xa1s casas para la gente, pero tambi\xc3\xa9n debemos asegurarnos de que los progresos realizados hasta la fecha se mantengan y no se malgasten.'
p10
aaS'haiti.png'
p11
aaa.(lp0
S'action'
p1
a(lp2
I9
aS'La misi\xc3\xb3n es proporcionar una vivienda digna a los habitantes de la aldea. Aumenta la barra de progreso para Vivienda a 40%, manteniendo las barras de progreso para nutrici\xc3\xb3n y salud por encima del 30%. Esta misi\xc3\xb3n debe ser completada en un lapso de 1 mes.'
p3
aa.(lp0
S'condition'
p1
a(lp2
S'NOR'
p3
aI30
a(lp4
(lp5
I00
aI3
aS''
p6
ag6
aS'>='
p7
aS'NUTRITION'
p8
aI30
aa(lp9
I00
aI3
ag6
ag6
ag7
aS'HEALTH'
p10
aI30
aaaa.(lp0
S'actionFalse'
p1
a(lp2
I8
aS'No fuiste capaz de cumplir esta misi\xc3\xb3n. Debes completarla para seguir al siguiente nivel'
p3
aa.(lp0
S'actionFalse'
p1
a(lp2
I3
aS''
p3
aa.(lp0
S'condition'
p1
a(lp2
S'NOR'
p3
aI1
a(lp4
(lp5
I00
aI3
aS''
p6
ag6
aS'>='
p7
aS'HOUSING'
p8
aI40
aaaa.(lp0
S'action'
p1
a(lp2
I7
aS'Haz proporcionado una vivienda digna a los habitantes de tu ciudad.'
p3
aa.(lp0
S'actionTrue'
p1
a(lp2
I2
aS''
p3
aa.(lp0
S'actionFalse'
p1
a(lp2
I8
aS'No fuiste capaz de cumplir esta misi\xc3\xb3n. Debes completarla para seguir al siguiente nivel'
p3
aa.(lp0
S'actionFalse'
p1
a(lp2
I3
aS''
p3
aa.(lp0
S'action'
p1
a(lp2
I1
a(lp3
(lp4
S'Gilbert Fernandez'
p5
aS'Es parte esencial del plan de recuperaci\xc3\xb3n que la gente disponga de fuentes de trabajo y disponga nuevamente de sueldos.'
p6
aS'Ragnar Stefansson'
p7
aS'La gente ha empezado a vivir en sus propios hogares y el proceso de reconstrucci\xc3\xb3n avanza a un ritmo acelerado '
p8
aS'Stevenson Gorbachev'
p9
aS'Los habitantes de la ciudad necesitan ser capacitados, de modo que puedan comenzar a alimentarse. Deben ser autosuficientes ya que el suministro de alimentos no va a durar por mucho tiempo.'
p10
ag5
aS' Estamos planeando poner en marcha un programa con el fin de proporcionar empleo a la gente. '
p11
aaS'haiti.png'
p12
aaa.(lp0
S'action'
p1
a(lp2
I9
aS'La funci\xc3\xb3n de los talleres es entrenar a las personas para producir herramientas para la aldea.'
p3
aa.(lp0
S'action'
p1
a(lp2
I9
aS'Esta vez tendr\xc3\xa1s que entrenar a las personas para que puedan iniciar una vida normal otra vez. Aumenta la barra de progreso de capacitaci\xc3\xb3n a 40% creando talleres y tambi\xc3\xa9n asegura que las barras de nutrici\xc3\xb3n y salud se encuentren por sobre 30% y la barra de vivienda por sobre el 40%. El plazo para esta misi\xc3\xb3n es de 1 mes.'
p3
aa.(lp0
S'condition'
p1
a(lp2
S'NOR'
p3
aI30
a(lp4
(lp5
I00
aI3
aS''
p6
ag6
aS'>='
p7
aS'HEALTH'
p8
aI30
aa(lp9
I00
aI3
ag6
ag6
ag7
aS'NUTRITION'
p10
aI30
aa(lp11
I00
aI3
ag6
ag6
ag7
aS'HOUSING'
p12
aI40
aaaa.(lp0
S'actionFalse'
p1
a(lp2
I8
aS'Has perdido en este nivel. Int\xc3\xa9ntalo de nuevo'
p3
aa.(lp0
S'actionFalse'
p1
a(lp2
I3
aS''
p3
aa.(lp0
S'condition'
p1
a(lp2
S'NOR'
p3
aI1
a(lp4
(lp5
I00
aI3
aS''
p6
ag6
aS'>='
p7
aS'TRAINING'
p8
aI40
aaaa.(lp0
S'actionTrue'
p1
a(lp2
I7
aS'Se ha creado empleo para las personas y se han hecho autosuficientes. \xc2\xa1Felicitaciones!'
p3
aa.(lp0
S'actionTrue'
p1
a(lp2
I2
aS''
p3
aa.(lp0
S'actionFalse'
p1
a(lp2
I8
aS'Has perdido en este nivel. Int\xc3\xa9ntalo de nuevo'
p3
aa.(lp0
S'actionFalse'
p1
a(lp2
I3
aS''
p3
aa.(lp0
S'action'
p1
a(lp2
I1
a(lp3
(lp4
S'Stevenson Gorbachev'
p5
aS'Debido al terremoto el sistema educativo de la ciudad ha colapsado completamente.'
p6
aS'John Tremblay'
p7
aS'Es esencial para el futuro que los ni\xc3\xb1os recibir\xc3\xa1n educaci\xc3\xb3n y esta se imparta desde sus inicios. '
p8
aS'Gilbert Fernandez'
p9
aS'La ciudad tambi\xc3\xa9n debe poseer ahorros monetarios a fin de garantizar que este tipo de calamidades se pueden manejar de manera m\xc3\xa1s efectiva. '
p10
aaS'haiti.png'
p11
aaa.(lp0
S'action'
p1
a(lp2
I9
aS'Todos los servicios b\xc3\xa1sicos de la aldea han sido restaurados, por lo que es tu trabajo manternerlos trabajando. Aumenta la barra de progreso de educaci\xc3\xb3n y capacitaci\xc3\xb3n a 60% y en el pr\xc3\xb3ximo mes ninguna de las barras debe caer por debajo del 50% y debes reunir 4000 Rs al cabo de este tiempo.'
p3
aa.(lp0
S'condition'
p1
a(lp2
S'NOR'
p3
aI30
a(lp4
(lp5
I00
aI3
aS''
p6
ag6
aS'>='
p7
aS'HEALTH'
p8
aI50
aa(lp9
I00
aI3
ag6
ag6
ag7
aS'NUTRITION'
p10
aI50
aa(lp11
I00
aI3
ag6
ag6
ag7
aS'HOUSING'
p12
aI50
aaaa.(lp0
S'actionFalse'
p1
a(lp2
I8
aS'No has sido capaz de completar la tarea. Debes completarla para pasar al siguiente nivel'
p3
aa.(lp0
S'actionFalse'
p1
a(lp2
I3
aS''
p3
aa.(lp0
S'condition'
p1
a(lp2
S'NOR'
p3
aI1
a(lp4
(lp5
I00
aI3
aS''
p6
ag6
aS'>='
p7
aS'EDUCATION'
p8
aI60
aa(lp9
I00
aI5
ag6
ag6
ag7
ag6
aI4000
aa(lp10
I00
aI3
ag6
ag6
ag7
aS'TRAINING'
p11
aI60
aaaa.(lp0
S'actionTrue'
p1
a(lp2
I7
aS'Has completado este paso de llevar la ciudad hacia plena recuperaci\xc3\xb3n'
p3
aa.(lp0
S'actionTrue'
p1
a(lp2
I2
aS''
p3
aa.(lp0
S'actionFalse'
p1
a(lp2
I8
aS'No has sido capaz de completar la tarea. Debes completarla para pasar al siguiente nivel'
p3
aa.(lp0
S'actionFalse'
p1
a(lp2
I3
aS''
p3
aa.(lp0
S'action'
p1
a(lp2
I1
a(lp3
(lp4
S'Stevenson Gorbachev'
p5
aS'La situaci\xc3\xb3n de la ciudad ha mejorado considerablemente '
p6
aS'Gilbert Fernandez'
p7
aS' Debido al r\xc3\xa1pido desarrollo del sistema educativo, One Laptop Per Child (OLPC, Un Computador por Ni\xc3\xb1o) ha decidido donar computadoras port\xc3\xa1tiles a las escuelas .'
p8
aS'John Tremblay'
p9
aS'Esta es una medida muy buena pues ser\xc3\xa1 de gran ayuda al crecimiento del sistema educativo. Por otra parte, este tipo de cosas ayudar mantener todos los niveles de la sociedad en equidad y por lo tanto que la sociedad se desarrolle en su conjunto.'
p10
ag5
aS'El progreso realizado a la fecha ser\xc3\xada in\xc3\xbatil si no se mantiene y el dinero obtenido se utilice para futuros desarrollos. \xc2\xbfTenemos suficientes alimentos y medicamentos para la gente en los pr\xc3\xb3ximos meses?'
p11
aS'Tony Peralta'
p12
aS'Nuestros dep\xc3\xb3sitos est\xc3\xa1n llenos, estamos totalmente preparados en ese frente,'
p13
aS'Ragnar Stefansson'
p14
aS'El \xc3\xa1rea de vivienda necesita ser atendida, vamos a necesitar muchas m\xc3\xa1s casas para otorgarle techo a todas las personas. '
p15
aaS'haiti.png'
p16
aaa.(lp0
S'action'
p1
a(lp2
I9
aS'Ahora tiene que prestar atenci\xc3\xb3n al desarrollo de la persona village.Every en el pueblo debe tener una casa adecuada a itself.Your tarea es aumentar la barra de progreso para la vivienda del 70%, manteniendo todos los dem\xc3\xa1s muy por encima del 30% durante los primeros 10 d\xc3\xadas y por encima del 50% para los pr\xc3\xb3ximos 20 dias.El plazo es de 1 meses.'
p3
aa.(lp0
S'condition'
p1
a(lp2
S'NOR'
p3
aI10
a(lp4
(lp5
I00
aI3
aS''
p6
ag6
aS'>='
p7
aS'EDUCATION'
p8
aI30
aa(lp9
I00
aI3
ag6
ag6
ag7
aS'HEALTH'
p10
aI30
aa(lp11
I00
aI3
ag6
ag6
ag7
aS'TRAINING'
p12
aI30
aa(lp13
I00
aI3
ag6
ag6
ag7
aS'NUTRITION'
p14
aI30
aaaa.(lp0
S'actionFalse'
p1
a(lp2
I8
aS'No has sido capaz de completar la tarea. Debes completarla para pasar al siguiente nivel'
p3
aa.(lp0
S'actionFalse'
p1
a(lp2
I3
aS''
p3
aa.(lp0
S'condition'
p1
a(lp2
S'NOR'
p3
aI20
a(lp4
(lp5
I00
aI3
aS''
p6
ag6
aS'>='
p7
aS'EDUCATION'
p8
aI40
aa(lp9
I00
aI3
ag6
ag6
ag7
aS'HEALTH'
p10
aI40
aa(lp11
I00
aI3
ag6
ag6
ag7
aS'TRAINING'
p12
aI40
aa(lp13
I00
aI3
ag6
ag6
ag7
aS'NUTRITION'
p14
aI40
aaaa.(lp0
S'actionFalse'
p1
a(lp2
I8
aS'No has sido capaz de completar la tarea. Debes completarla para pasar al siguiente nivel'
p3
aa.(lp0
S'actionFalse'
p1
a(lp2
I3
aS''
p3
aa.(lp0
S'condition'
p1
a(lp2
S'NOR'
p3
aI1
a(lp4
(lp5
I00
aI3
aS''
p6
ag6
aS'>='
p7
aS'HOUSING'
p8
aI70
aaaa.(lp0
S'actionTrue'
p1
a(lp2
I7
aS'Has completado este paso llevando la ciudad hacia la plena recuperaci\xc3\xb3n'
p3
aa.(lp0
S'actionFalse'
p1
a(lp2
I8
aS'No has sido capaz de completar la tarea. Debes completarla para pasar al siguiente nivel'
p3
aa.(lp0
S'actionFalse'
p1
a(lp2
I3
aS''
p3
aa.(lp0
S'action'
p1
a(lp2
I1
a(lp3
(lp4
S'Gilbert Fernandez'
p5
aS'La gente ha vuelto a tener una vida feliz y pr\xc3\xb3spera'
p6
aS'Tony Peralta'
p7
aS'Todos nuestros esfuerzos han dado sus frutos, nuestro trabajo aqu\xc3\xad en esta ciudad ha terminado. '
p8
aS'Stevenson Gorbachev'
p9
aS'Aunque la ciudad se ha recuperado de la conmoci\xc3\xb3n del terremoto, es mi deber como Gobernador mantener la condici\xc3\xb3n actual de la aldea. '
p10
aaS'haiti.png'
p11
aaa.(lp0
S'action'
p1
a(lp2
I6
aS'Felicitaciones de haber restaurado la paz y la prosperidad de su pueblo'
p3
aa.(lp0
S'action'
p1
a(lp2
I10
aS''
p3
aa.