(lp0
S'action'
p1
a(lp2
I7
aS'Hait\xed es un pa\xeds caribe\xf1o. Junto a Rep\xfablica Dominicana, ocupa la isla La Espa\xf1ola, en el archipelago mayor de las Antillas. El \xe1rea total de Hait\xed es de 27.750 kil\xf3metros cuadrados y su capital es Puerto Pr\xedncipe. Fue la primera naci\xf3n independiente de Am\xe9rica Latina y la primera rep\xfablica en el mundo en ser dirigido por un ser humano de raza negra cuando tras una rebeli\xf3n exitosa de esclavos en 1804.'
p3
aa.(lp0
S'action'
p1
a(lp2
I4
aS''
p3
aa.(lp0
S'action'
p1
a(lp2
I1
a(lp3
(lp4
S'Gilbert Fernandez'
p5
aS'La ciudad de Hait\xed ha sido golpeado por un catastr\xf3fico terremoto de magnitud 7.0'
p6
aS'Stevenson Gorbachev'
p7
aS'Muchas edificaciones notables, tales como el Palacio Presidencial, la Asamblea Nacional, la catedral de Puerto Pr\xedncipe, la principal c\xe1rcel est\xe1n completamente destruidas. Muchas figuras p\xfablicas tambi\xe9n son v\xedctimas de este terremoto'
p8
ag5
aS'Hait\xed no es capaz de recuperarse por s\xed sola de este desastre'
p9
ag7
aS'Hemos pedido ayuda a nuestros pa\xedses vecinos. Espero que seamos capaces de superar estos tiempos oscuros con su apoyo'
p10
aaS'earthquake_st.png'
p11
aaa.(lp0
S'action'
p1
a(lp2
I7
aS'Hait\xed ha sido golpeado por un terremoto que ha destruido la mayor parte de los edificios y deterior\xf3 gravemente la situaci\xf3n de la ciudad. Varios equipos se han enviado por diferentes pa\xedses para atender la situaci\xf3n y ayudar en todo lo que can. Tu, siendo la jefatura de la ciudad, tienen que trabajar en colaboraci\xf3n con todos los equipos enviados para su ayuda y garantizar la restauraci\xf3n de la paz en la ciudad.'
p3
aa.(lp0
S'action'
p1
a(lp2
I1
a(lp3
(lp4
S'Stevenson Gorbachev'
p5
aS'El terremoto ha destruido todo.'
p6
aS'Tony Peralta'
p7
aS'En este momento es necesario que se relocalicen los sobrevivientes o la gente que ha quedado aislada debido all bloqueo de carreteras, y se les suministre alimentos y medicinas.'
p8
aS'Ragnar Stefansson'
p9
aS' Las v\xedas de acceso m\xe1s importantes de la ciudad est\xe1n bloqueadas y hemos comenzado a trabajar en ello, pero nos tomar\xe1 algunos d\xedas para volver a la normalidad '
p10
ag5
aS' Hasta entonces , debemos hacer algo para ayudar a los sobrevivientes. '
p11
ag7
aS'La ciudad tambi\xe9n necesita m\xe1s hospitales, ya que s\xf3lo hay un hospital en pleno funcionamiento en la ciudad y est\xe1 saturado. Hay cientos de heridos.'
p12
aaS'haiti.png'
p13
aaa.(lp0
S'action'
p1
a(lp2
I9
aS'Granjas y Hospitales ayudan a aumentar la barra de progreso de nutici\xf3n y de salud.'
p3
aa.(lp0
S'action'
p1
a(lp2
I9
aS'La misi\xf3n es proporcionar alimentos y medicamentos a las instalaciones de los sobrevivientes. Aumenta las barras de progreso de la nutrici\xf3n y la salud a 30% en un lapso de 2 semanas.'
p3
aa.(lp0
S'condition'
p1
a(lp2
S'NOR'
p3
aI14
a(lp4
(lp5
I00
aI3
aS''
p6
ag6
aS'>='
p7
aS'HEALTH'
p8
aI0
aaaa.(lp0
S'actionFalse'
p1
a(lp2
I8
aS'No fuiste capaz de mantener las barras por sobre ell 30%. No has podido salvar al pueblo. Debes reintentar este nivel para seguir al siguiente'
p3
aa.(lp0
S'actionFalse'
p1
a(lp2
I3
aS''
p3
aa.(lp0
S'condition'
p1
a(lp2
S'NOR'
p3
aI1
a(lp4
(lp5
I00
aI3
aS''
p6
ag6
aS'>='
p7
aS'HEALTH'
p8
aI30
aa(lp9
I00
aI3
ag6
ag6
ag7
aS'NUTRITION'
p10
aI30
aaaa.(lp0
S'actionTrue'
p1
a(lp2
I7
aS'Haz tenido \xe9xito en el primer paso hacia la resurrecci\xf3n de la ciudad'
p3
aa.(lp0
S'actionTrue'
p1
a(lp2
I2
aS''
p3
aa.(lp0
S'actionFalse'
p1
a(lp2
I8
aS'No fuiste capaz de mantener las barras por sobre ell 30%.  No has podido salvar al pueblo. Debes reintentar este nivel para seguir al siguiente'
p3
aa.(lp0
S'actionFalse'
p1
a(lp2
I3
aS''
p3
aa.(lp0
S'action'
p1
a(lp2
I1
a(lp3
(lp4
S'Tony Peralta'
p5
aS' Grandes cantidades de suministros de alimentos han sido recogidos en Puerto Pr\xedncipe y un gran n\xfamero de m\xf3dulos de atenci\xf3n m\xe9dica m\xf3vil, enviados por varios pa\xedses, est\xe1n trabajando con las personas heridas'
p6
aS'Ragnar Stefansson'
p7
aS'Cerca del 90% de los edificios en la ciudad han sido destruidos y la gente vive en condiciones de hacinamiento. Hay que hacer algo '
p8
aS'Stevenson Gorbachev'
p9
aS'Tenemos que empezar a construir m\xe1s casas para la gente, pero tambi\xe9n debemos asegurarnos de que los progresos realizados hasta la fecha se mantengan y no se malgasten.'
p10
aaS'haiti.png'
p11
aaa.(lp0
S'action'
p1
a(lp2
I9
aS'La misi\xf3n es proporcionar una vivienda digna a los habitantes de la aldea. Aumenta la barra de progreso para Vivienda a 40%, manteniendo las barras de progreso para nutrici\xf3n y salud por encima del 30%. Esta misi\xf3n debe ser completada en un lapso de 1 mes.'
p3
aa.(lp0
S'condition'
p1
a(lp2
S'NOR'
p3
aI30
a(lp4
(lp5
I00
aI3
aS''
p6
ag6
aS'>='
p7
aS'NUTRITION'
p8
aI30
aa(lp9
I00
aI3
ag6
ag6
ag7
aS'HEALTH'
p10
aI30
aaaa.(lp0
S'actionFalse'
p1
a(lp2
I8
aS'No fuiste capaz de cumplir esta misi\xf3n. Debes completarla para seguir al siguiente nivel'
p3
aa.(lp0
S'actionFalse'
p1
a(lp2
I3
aS''
p3
aa.(lp0
S'condition'
p1
a(lp2
S'NOR'
p3
aI1
a(lp4
(lp5
I00
aI3
aS''
p6
ag6
aS'>='
p7
aS'HOUSING'
p8
aI40
aaaa.(lp0
S'action'
p1
a(lp2
I7
aS'Haz proporcionado una vivienda digna a los habitantes de tu ciudad.'
p3
aa.(lp0
S'actionTrue'
p1
a(lp2
I2
aS''
p3
aa.(lp0
S'actionFalse'
p1
a(lp2
I8
aS'No fuiste capaz de cumplir esta misi\xf3n. Debes completarla para seguir al siguiente nivel'
p3
aa.(lp0
S'actionFalse'
p1
a(lp2
I3
aS''
p3
aa.(lp0
S'action'
p1
a(lp2
I1
a(lp3
(lp4
S'Gilbert Fernandez'
p5
aS'Es parte esencial del plan de recuperaci\xf3n que la gente disponga de fuentes de trabajo y disponga nuevamente de sueldos.'
p6
aS'Ragnar Stefansson'
p7
aS'La gente ha empezado a vivir en sus propios hogares y el proceso de reconstrucci\xf3n avanza a un ritmo acelerado '
p8
aS'Stevenson Gorbachev'
p9
aS'Los habitantes de la ciudad necesitan ser capacitados, de modo que puedan comenzar a alimentarse. Deben ser autosuficientes ya que el suministro de alimentos no va a durar por mucho tiempo.'
p10
ag5
aS' Estamos planeando poner en marcha un programa con el fin de proporcionar empleo a la gente. '
p11
aaS'haiti.png'
p12
aaa.(lp0
S'action'
p1
a(lp2
I9
aS'La funci\xf3n de los talleres es entrenar a las personas para producir herramientas para la aldea.'
p3
aa.(lp0
S'action'
p1
a(lp2
I9
aS'Esta vez tendr\xe1s que entrenar a las personas para que puedan iniciar una vida normal otra vez. Aumenta la barra de progreso de capacitaci\xf3n a 40% creando talleres y tambi\xe9n asegura que las barras de nutrici\xf3n y salud se encuentren por sobre 30% y la barra de vivienda por sobre el 40%. El plazo para esta misi\xf3n es de 1 mes.'
p3
aa.(lp0
S'condition'
p1
a(lp2
S'NOR'
p3
aI30
a(lp4
(lp5
I00
aI3
aS''
p6
ag6
aS'>='
p7
aS'HEALTH'
p8
aI30
aa(lp9
I00
aI3
ag6
ag6
ag7
aS'NUTRITION'
p10
aI30
aa(lp11
I00
aI3
ag6
ag6
ag7
aS'HOUSING'
p12
aI40
aaaa.(lp0
S'actionFalse'
p1
a(lp2
I8
aS'Has perdido en este nivel. Int\xe9ntalo de nuevo'
p3
aa.(lp0
S'actionFalse'
p1
a(lp2
I3
aS''
p3
aa.(lp0
S'condition'
p1
a(lp2
S'NOR'
p3
aI1
a(lp4
(lp5
I00
aI3
aS''
p6
ag6
aS'>='
p7
aS'TRAINING'
p8
aI40
aaaa.(lp0
S'actionTrue'
p1
a(lp2
I7
aS'Se ha creado empleo para las personas y se han hecho autosuficientes. \xa1Felicitaciones!'
p3
aa.(lp0
S'actionTrue'
p1
a(lp2
I2
aS''
p3
aa.(lp0
S'actionFalse'
p1
a(lp2
I8
aS'Has perdido en este nivel. Int\xe9ntalo de nuevo'
p3
aa.(lp0
S'actionFalse'
p1
a(lp2
I3
aS''
p3
aa.(lp0
S'action'
p1
a(lp2
I1
a(lp3
(lp4
S'Stevenson Gorbachev'
p5
aS'Debido al terremoto el sistema educativo de la ciudad ha colapsado completamente.'
p6
aS'John Tremblay'
p7
aS'Es esencial para el futuro que los ni\xf1os recibir\xe1n educaci\xf3n y esta se imparta desde sus inicios. '
p8
aS'Gilbert Fernandez'
p9
aS'La ciudad tambi\xe9n debe poseer ahorros monetarios a fin de garantizar que este tipo de calamidades se pueden manejar de manera m\xe1s efectiva. '
p10
aaS'haiti.png'
p11
aaa.(lp0
S'action'
p1
a(lp2
I9
aS'Todos los servicios b\xe1sicos de la aldea han sido restaurados, por lo que es tu trabajo manternerlos trabajando. Aumenta la barra de progreso de educaci\xf3n y capacitaci\xf3n a 60% y en el pr\xf3ximo mes ninguna de las barras debe caer por debajo del 50% y debes reunir 4000 Rs al cabo de este tiempo.'
p3
aa.(lp0
S'condition'
p1
a(lp2
S'NOR'
p3
aI30
a(lp4
(lp5
I00
aI3
aS''
p6
ag6
aS'>='
p7
aS'HEALTH'
p8
aI50
aa(lp9
I00
aI3
ag6
ag6
ag7
aS'NUTRITION'
p10
aI50
aa(lp11
I00
aI3
ag6
ag6
ag7
aS'HOUSING'
p12
aI50
aaaa.(lp0
S'actionFalse'
p1
a(lp2
I8
aS'No has sido capaz de completar la tarea. Debes completarla para pasar al siguiente nivel'
p3
aa.(lp0
S'actionFalse'
p1
a(lp2
I3
aS''
p3
aa.(lp0
S'condition'
p1
a(lp2
S'NOR'
p3
aI1
a(lp4
(lp5
I00
aI3
aS''
p6
ag6
aS'>='
p7
aS'EDUCATION'
p8
aI60
aa(lp9
I00
aI5
ag6
ag6
ag7
ag6
aI4000
aa(lp10
I00
aI3
ag6
ag6
ag7
aS'TRAINING'
p11
aI60
aaaa.(lp0
S'actionTrue'
p1
a(lp2
I7
aS'Has completado este paso de llevar la ciudad hacia plena recuperaci\xf3n'
p3
aa.(lp0
S'actionTrue'
p1
a(lp2
I2
aS''
p3
aa.(lp0
S'actionFalse'
p1
a(lp2
I8
aS'No has sido capaz de completar la tarea. Debes completarla para pasar al siguiente nivel'
p3
aa.(lp0
S'actionFalse'
p1
a(lp2
I3
aS''
p3
aa.(lp0
S'action'
p1
a(lp2
I1
a(lp3
(lp4
S'Stevenson Gorbachev'
p5
aS'La situaci\xf3n de la ciudad ha mejorado considerablemente '
p6
aS'Gilbert Fernandez'
p7
aS' Debido al r\xe1pido desarrollo del sistema educativo, One Laptop Per Child (OLPC, Un Computador por Ni\xf1o) ha decidido donar computadoras port\xe1tiles a las escuelas .'
p8
aS'John Tremblay'
p9
aS'Esta es una medida muy buena pues ser\xe1 de gran ayuda al crecimiento del sistema educativo. Por otra parte, este tipo de cosas ayudar mantener todos los niveles de la sociedad en equidad y por lo tanto que la sociedad se desarrolle en su conjunto.'
p10
ag5
aS'El progreso realizado a la fecha ser\xeda in\xfatil si no se mantiene y el dinero obtenido se utilice para futuros desarrollos. \xbfTenemos suficientes alimentos y medicamentos para la gente en los pr\xf3ximos meses?'
p11
aS'Tony Peralta'
p12
aS'Nuestros dep\xf3sitos est\xe1n llenos, estamos totalmente preparados en ese frente,'
p13
aS'Ragnar Stefansson'
p14
aS'El \xe1rea de vivienda necesita ser atendida, vamos a necesitar muchas m\xe1s casas para otorgarle techo a todas las personas. '
p15
aaS'haiti.png'
p16
aaa.(lp0
S'action'
p1
a(lp2
I9
aS'Ahora tiene que prestar atenci\xf3n al desarrollo de la persona village.Every en el pueblo debe tener una casa adecuada a itself.Your tarea es aumentar la barra de progreso para la vivienda del 70%, manteniendo todos los dem\xe1s muy por encima del 30% durante los primeros 10 d\xedas y por encima del 50% para los pr\xf3ximos 20 dias.El plazo es de 1 meses.'
p3
aa.(lp0
S'condition'
p1
a(lp2
S'NOR'
p3
aI10
a(lp4
(lp5
I00
aI3
aS''
p6
ag6
aS'>='
p7
aS'EDUCATION'
p8
aI30
aa(lp9
I00
aI3
ag6
ag6
ag7
aS'HEALTH'
p10
aI30
aa(lp11
I00
aI3
ag6
ag6
ag7
aS'TRAINING'
p12
aI30
aa(lp13
I00
aI3
ag6
ag6
ag7
aS'NUTRITION'
p14
aI30
aaaa.(lp0
S'actionFalse'
p1
a(lp2
I8
aS'No has sido capaz de completar la tarea. Debes completarla para pasar al siguiente nivel'
p3
aa.(lp0
S'actionFalse'
p1
a(lp2
I3
aS''
p3
aa.(lp0
S'condition'
p1
a(lp2
S'NOR'
p3
aI20
a(lp4
(lp5
I00
aI3
aS''
p6
ag6
aS'>='
p7
aS'EDUCATION'
p8
aI40
aa(lp9
I00
aI3
ag6
ag6
ag7
aS'HEALTH'
p10
aI40
aa(lp11
I00
aI3
ag6
ag6
ag7
aS'TRAINING'
p12
aI40
aa(lp13
I00
aI3
ag6
ag6
ag7
aS'NUTRITION'
p14
aI40
aaaa.(lp0
S'actionFalse'
p1
a(lp2
I8
aS'No has sido capaz de completar la tarea. Debes completarla para pasar al siguiente nivel'
p3
aa.(lp0
S'actionFalse'
p1
a(lp2
I3
aS''
p3
aa.(lp0
S'condition'
p1
a(lp2
S'NOR'
p3
aI1
a(lp4
(lp5
I00
aI3
aS''
p6
ag6
aS'>='
p7
aS'HOUSING'
p8
aI70
aaaa.(lp0
S'actionTrue'
p1
a(lp2
I7
aS'Has completado este paso llevando la ciudad hacia la plena recuperaci\xf3n'
p3
aa.(lp0
S'actionFalse'
p1
a(lp2
I8
aS'No has sido capaz de completar la tarea. Debes completarla para pasar al siguiente nivel'
p3
aa.(lp0
S'actionFalse'
p1
a(lp2
I3
aS''
p3
aa.(lp0
S'action'
p1
a(lp2
I1
a(lp3
(lp4
S'Gilbert Fernandez'
p5
aS'La gente ha vuelto a tener una vida feliz y pr\xf3spera'
p6
aS'Tony Peralta'
p7
aS'Todos nuestros esfuerzos han dado sus frutos, nuestro trabajo aqu\xed en esta ciudad ha terminado. '
p8
aS'Stevenson Gorbachev'
p9
aS'Aunque la ciudad se ha recuperado de la conmoci\xf3n del terremoto, es mi deber como Gobernador mantener la condici\xf3n actual de la aldea. '
p10
aaS'haiti.png'
p11
aaa.(lp0
S'action'
p1
a(lp2
I6
aS'Felicitaciones de haber restaurado la paz y la prosperidad de su pueblo'
p3
aa.(lp0
S'action'
p1
a(lp2
I10
aS''
p3
aa.