(dp0
S'WATER'
p1
F3.0
sS'BUILDING MATERIAL'
p2
F5.0
sS'TOOLS'
p3
F5.0
s.(dp0
S'WATER'
p1
F8.0
sS'BUILDING MATERIAL'
p2
F25.0
sS'TOOLS'
p3
F20.0
s.(dp0
S'WATER'
p1
F8.0
sS'BUILDING MATERIAL'
p2
F20.0
sS'TOOLS'
p3
F20.0
s.(dp0
S'WATER'
p1
F10.0
sS'BUILDING MATERIAL'
p2
F25.0
sS'TOOLS'
p3
F10.0
s.(dp0
S'WATER'
p1
F15.0
sS'BUILDING MATERIAL'
p2
F0.0
sS'TOOLS'
p3
F5.0
s.(dp0
S'WATER'
p1
F0.0
sS'BUILDING MATERIAL'
p2
F10.0
sS'TOOLS'
p3
F20.0
s.(dp0
S'EMPLOYED PEOPLE IN CONSTRUCTION'
p1
F2.0
s.(dp0
S'EMPLOYED PEOPLE IN CONSTRUCTION'
p1
F4.0
s.(dp0
S'EMPLOYED PEOPLE IN CONSTRUCTION'
p1
F6.0
s.(dp0
S'EMPLOYED PEOPLE IN CONSTRUCTION'
p1
F4.0
s.(dp0
S'EMPLOYED PEOPLE IN CONSTRUCTION'
p1
F2.0
s.(dp0
S'EMPLOYED PEOPLE IN CONSTRUCTION'
p1
F4.0
s.(dp0
S'SCHOOL'
p1
(dp2
S'EMPLOYED PEOPLE IN CONSTRUCTION'
p3
F6.0
ssS'FARM'
p4
(dp5
g3
F2.0
ssS'HOUSE'
p6
(dp7
g3
F2.0
ssS'HOSPITAL'
p8
(dp9
g3
F4.0
ssS'WORKSHOP'
p10
(dp11
g3
F4.0
ssS'FOUNTAIN'
p12
(dp13
g3
F4.0
ss.(dp0
S'SCHOOL'
p1
S'School'
p2
sS'FARM'
p3
S'Farm'
p4
sS'HOUSE'
p5
S'House'
p6
sS'HOSPITAL'
p7
S'Hospital'
p8
sS'WORKSHOP'
p9
S'Workshop'
p10
sS'FOUNTAIN'
p11
S'Well'
p12
s.(dp0
S'BUILDING MATERIAL'
p1
F2.0
sS'TOOLS'
p2
F2.0
s.(dp0
S'BUILDING MATERIAL'
p1
F10.0
sS'TOOLS'
p2
F5.0
s.(dp0
S'BUILDING MATERIAL'
p1
F8.0
sS'TOOLS'
p2
F5.0
s.(dp0
S'BUILDING MATERIAL'
p1
F10.0
sS'TOOLS'
p2
F5.0
s.(dp0
S'BUILDING MATERIAL'
p1
F0.0
sS'TOOLS'
p2
F3.0
s.(dp0
S'BUILDING MATERIAL'
p1
F2.0
sS'TOOLS'
p2
F5.0
s.(dp0
.(dp0
S'MEDICINE'
p1
F2.0
sS'WATER'
p2
F5.0
s.(dp0
S'WATER'
p1
F2.0
sS'BOOKS'
p2
F2.0
s.(dp0
.(dp0
S'WATER'
p1
F10.0
s.(dp0
.(dp0
.(dp0
.(dp0
.(dp0
S'TOOLS'
p1
F15.0
s.I70
.(dp0
S'WHEAT'
p1
F0.0
sS'SUGAR'
p2
F0.0
sS'BEANS'
p3
F0.0
sS'OILS'
p4
F0.0
sS'RICE'
p5
F0.0
sS'SALT'
p6
F0.0
s.(I34
I33
I33
tp0
.(dp0
S'WATER'
p1
I13
s.(dp0
.(dp0
S'EMPLOYED PEOPLE IN HOSPITAL'
p1
F10.0
s.(dp0
S'EMPLOYED PEOPLE IN SCHOOL'
p1
F8.0
s.(dp0
S'EMPLOYED PEOPLE IN WORKSHOP'
p1
F10.0
s.(dp0
S'EMPLOYED PEOPLE IN FARM'
p1
F10.0
s.(dp0
.(dp0
S'SHELTERED PEOPLE'
p1
F8.0
s.(dp0
S'HEALTHY PEOPLE'
p1
F30.0
s.(dp0
S'EDUCATED PEOPLE'
p1
F30.0
s.(dp0
.(dp0
.(dp0
.(dp0
S'SCHOOL'
p1
(dp2
S'EDUCATED PEOPLE'
p3
F30.0
ssS'FARM'
p4
(dp5
sS'HOUSE'
p6
(dp7
S'SHELTERED PEOPLE'
p8
F8.0
ssS'HOSPITAL'
p9
(dp10
S'HEALTHY PEOPLE'
p11
F30.0
ssS'WORKSHOP'
p12
(dp13
sS'FOUNTAIN'
p14
(dp15
s.(dp0
S'SCHOOL'
p1
(dp2
S'EMPLOYED PEOPLE IN SCHOOL'
p3
F8.0
ssS'FARM'
p4
(dp5
S'EMPLOYED PEOPLE IN FARM'
p6
F10.0
ssS'HOUSE'
p7
(dp8
sS'HOSPITAL'
p9
(dp10
S'EMPLOYED PEOPLE IN HOSPITAL'
p11
F10.0
ssS'WORKSHOP'
p12
(dp13
S'EMPLOYED PEOPLE IN WORKSHOP'
p14
F10.0
ssS'FOUNTAIN'
p15
(dp16
s.(dp0
S'SCHOOL'
p1
(dp2
S'WATER'
p3
F2.0
sS'BOOKS'
p4
F2.0
ssS'FARM'
p5
(dp6
g3
F10.0
ssS'HOUSE'
p7
(dp8
sS'HOSPITAL'
p9
(dp10
S'MEDICINE'
p11
F2.0
sg3
F5.0
ssS'WORKSHOP'
p12
(dp13
sS'FOUNTAIN'
p14
(dp15
s.(dp0
S'TOTAL POPULATION'
p1
F0.0
sS'SHELTERED PEOPLE'
p2
F0.0
sS'EDUCATED PEOPLE'
p3
F0.0
sS'EMPLOYED PEOPLE IN SCHOOL'
p4
F0.0
sS'EMPLOYED PEOPLE IN HOSPITAL'
p5
F0.0
sS'EMPLOYED PEOPLE IN WORKSHOP'
p6
F0.0
sS'PEOPLE FED'
p7
F0.0
sS'EMPLOYED PEOPLE IN CONSTRUCTION'
p8
F0.0
sS'HEALTHY PEOPLE'
p9
F0.0
sS'EMPLOYED PEOPLE IN FARM'
p10
F0.0
s.(dp0
S'WHEAT'
p1
F0.0
sS'SUGAR'
p2
F0.0
sS'BEANS'
p3
F0.0
sS'OILS'
p4
F0.0
sS'RICE'
p5
F0.0
sS'SALT'
p6
F0.0
s.F0.40000000000000002
.F0.20000000000000001
.F0.0
.F0.0
.F0.0
.F0.0
.F0.0
.I3
.I0
.I0
.I0
.I1
.I1
.I700
.L9999999999L
.I1
.I85
.I120
.I95
.I10
.I0
.I60
.I60
.I40
.I50
.I30
.I20
.I10000
.I10000
.I10000
.I2000
.I2000
.I2000
.I2000
.I2000
.I2000
.I2000
.I2000
.I15
.I15
.I15
.I10
.I10
.I10
.I10
.I12
.I8
.I8
.I12
.I100
.(dp0
S'SCHOOL'
p1
I3
sS'FARM'
p2
I4
sS'HOUSE'
p3
I21
sS'HOSPITAL'
p4
I3
sS'WORKSHOP'
p5
I4
sS'FOUNTAIN'
p6
I7
s.I3
.F0.40000000000000002
.F0.20000000000000001
.I10000
.L1000000000L
.I10
.(lp0
(dp1
S'SCHOOL'
p2
I1
sS'FARM'
p3
I2
sS'HOUSE'
p4
I8
sS'HOSPITAL'
p5
I1
sS'WORKSHOP'
p6
I2
sS'FOUNTAIN'
p7
I3
sa(dp8
g2
I2
sg3
I3
sg4
I15
sg5
I2
sg6
I3
sg7
I5
sa(dp9
g2
I3
sg3
I4
sg4
I21
sg5
I3
sg6
I4
sg7
I7
sa.(dp0
S'FATS'
p1
F0.5
sS'PROTIENS'
p2
F0.29999999999999999
sS'VITAMINS'
p3
F0.20000000000000001
s.(dp0
S'FATS'
p1
F0.69999999999999996
sS'PROTIENS'
p2
F0.14999999999999999
sS'VITAMINS'
p3
F0.14999999999999999
s.(dp0
S'FATS'
p1
F0.20000000000000001
sS'PROTIENS'
p2
F0.40000000000000002
sS'VITAMINS'
p3
F0.40000000000000002
s.(dp0
S'FATS'
p1
F0.55000000000000004
sS'PROTIENS'
p2
F0.29999999999999999
sS'VITAMINS'
p3
F0.14999999999999999
s.(dp0
S'FATS'
p1
F0.10000000000000001
sS'PROTIENS'
p2
F0.40000000000000002
sS'VITAMINS'
p3
F0.5
s.(dp0
S'FATS'
p1
F0.20000000000000001
sS'PROTIENS'
p2
F0.34999999999999998
sS'VITAMINS'
p3
F0.45000000000000001
s.(dp0
S'WHEAT'
p1
(dp2
S'FATS'
p3
F0.69999999999999996
sS'PROTIENS'
p4
F0.14999999999999999
sS'VITAMINS'
p5
F0.14999999999999999
ssS'SUGAR'
p6
(dp7
g3
F0.55000000000000004
sg4
F0.29999999999999999
sg5
F0.14999999999999999
ssS'BEANS'
p8
(dp9
g3
F0.20000000000000001
sg4
F0.40000000000000002
sg5
F0.40000000000000002
ssS'OILS'
p10
(dp11
g3
F0.20000000000000001
sg4
F0.34999999999999998
sg5
F0.45000000000000001
ssS'RICE'
p12
(dp13
g3
F0.5
sg4
F0.29999999999999999
sg5
F0.20000000000000001
ssS'SALT'
p14
(dp15
g3
F0.10000000000000001
sg4
F0.40000000000000002
sg5
F0.5
ss.F25.0
.I1
.I30
.F0.050000000000000003
.(dp0
S'SHELTERED PEOPLE'
p1
I1
s.(dp0
S'WATER'
p1
F0.20000000000000001
sS'NUTRITION'
p2
F0.29999999999999999
sS'HEALTHY PEOPLE'
p3
F0.5
s.(dp0
S'FATS'
p1
F0.10000000000000001
sS'PROTIENS'
p2
F0.29999999999999999
sS'VITAMINS'
p3
F0.29999999999999999
sS'PEOPLE FED'
p4
F0.29999999999999999
s.(dp0
S'LEVEL OF EDUCATION'
p1
F0.40000000000000002
sS'EDUCATED PEOPLE'
p2
F0.59999999999999998
s.(dp0
S'EMPLOYED PEOPLE IN HOSPITAL'
p1
F0.10000000000000001
sS'LEVEL OF WORKSHOPS'
p2
F0.40000000000000002
sS'EMPLOYED PEOPLE IN FARM'
p3
F0.20000000000000001
sS'EMPLOYED PEOPLE IN WORKSHOP'
p4
F0.25
sS'EMPLOYED PEOPLE IN CONSTRUCTION'
p5
F0.050000000000000003
s.