(lp0
(I200
I2550
tp1
a(I2000
I5000
tp2
a(I6500
I400
tp3
a(I6000
I5300
tp4
a.(lp0
(I800
I2000
tp1
a(I1000
I2600
tp2
a(I1400
I3300
tp3
a(I2000
I2000
tp4
a(I2000
I2600
tp5
a(I2800
I3800
tp6
a(I3800
I3800
tp7
a(I3200
I4500
tp8
a(I5200
I500
tp9
a(I4600
I1100
tp10
a(I5500
I1100
tp11
a(I6200
I1600
tp12
a(I5000
I1800
tp13
a(I5800
I2200
tp14
a(I5200
I2500
tp15
a(I5000
I3600
tp16
a(I5800
I3500
tp17
a(I6500
I3300
tp18
a(I6000
I4100
tp19
a(I6750
I3800
tp20
a(I6900
I4500
tp21
a.(lp0
(I1400
I3900
tp1
a(I7700
I2200
tp2
a(I4500
I4200
tp3
a.(lp0
(I2700
I2000
tp1
a(I6100
I2500
tp2
a(I7200
I3000
tp3
a.(lp0
(I300
I500
tp1
a(I3000
I500
tp2
a(I7400
I800
tp3
a(I7500
I3600
tp4
a.(lp0
(I2100
I1200
tp1
a(I2200
I3000
tp2
a(I3600
I3500
tp3
a(I4500
I1800
tp4
a(I6900
I2000
tp5
a(I5900
I3000
tp6
a(I6000
I4800
tp7
a.(lp0
(lp1
(I800
I2000
tp2
a(I1000
I2600
tp3
a(I1400
I3300
tp4
a(I2000
I2000
tp5
a(I2000
I2600
tp6
a(I2800
I3800
tp7
a(I3800
I3800
tp8
a(I3200
I4500
tp9
a(I5200
I500
tp10
a(I4600
I1100
tp11
a(I5500
I1100
tp12
a(I6200
I1600
tp13
a(I5000
I1800
tp14
a(I5800
I2200
tp15
a(I5200
I2500
tp16
a(I5000
I3600
tp17
a(I5800
I3500
tp18
a(I6500
I3300
tp19
a(I6000
I4100
tp20
a(I6750
I3800
tp21
a(I6900
I4500
tp22
aa(lp23
(I2700
I2000
tp24
a(I6100
I2500
tp25
a(I7200
I3000
tp26
aa(lp27
(I1400
I3900
tp28
a(I7700
I2200
tp29
a(I4500
I4200
tp30
aa(lp31
(I200
I2550
tp32
a(I2000
I5000
tp33
a(I6500
I400
tp34
a(I6000
I5300
tp35
aa(lp36
(I300
I500
tp37
a(I3000
I500
tp38
a(I7400
I800
tp39
a(I7500
I3600
tp40
aa(lp41
(I2100
I1200
tp42
a(I2200
I3000
tp43
a(I3600
I3500
tp44
a(I4500
I1800
tp45
a(I6900
I2000
tp46
a(I5900
I3000
tp47
a(I6000
I4800
tp48
aa.(lp0
(lp1
(S'Man'
p2
(I0
I2400
I1200
I1500
tp3
tp4
a(g2
(I0
I2400
I1200
I1500
tp5
tp6
aa(lp7
(g2
(I1500
I4500
I1200
I1500
tp8
tp9
a(g2
(I1500
I4500
I1200
I1500
tp10
tp11
aa(lp12
(g2
(I6200
I0
I1200
I1500
tp13
tp14
a(g2
(I6200
I0
I1200
I1500
tp15
tp16
aa(lp17
(g2
(I5500
I4500
I1200
I1500
tp18
tp19
a(g2
(I5500
I4500
I1200
I1500
tp20
tp21
aa.(lp0
(lp1
(S'Woman'
p2
(I600
I1800
I2400
I2000
tp3
tp4
a(g2
(I600
I1800
I2400
I2000
tp5
tp6
a(g2
(I600
I1800
I2400
I2000
tp7
tp8
a(S'Boy'
p9
(I600
I1800
I2400
I2000
tp10
tp11
a(g9
(I600
I1800
I2400
I2000
tp12
tp13
a(S'Girl'
p14
(I600
I1800
I2400
I2000
tp15
tp16
a(g14
(I600
I1800
I2400
I2000
tp17
tp18
aa(lp19
a(lp20
a(lp21
a(lp22
a(lp23
(g2
(I2500
I3500
I2000
I2000
tp24
tp25
a(g2
(I2500
I3500
I2000
I2000
tp26
tp27
a(g9
(I2500
I3500
I2000
I2000
tp28
tp29
a(g14
(I2500
I3500
I2000
I2000
tp30
tp31
aa(lp32
a(lp33
a(lp34
(S'Man'
p35
(I4500
I0
I2500
I3000
tp36
tp37
a(g2
(I4500
I0
I2500
I3000
tp38
tp39
a(g14
(I4500
I0
I2500
I3000
tp40
tp41
a(g14
(I4500
I0
I2500
I3000
tp42
tp43
a(g9
(I4500
I0
I2500
I3000
tp44
tp45
a(g9
(I4500
I0
I2500
I3000
tp46
tp47
aa(lp48
a(lp49
a(lp50
a(lp51
a(lp52
a(lp53
a(lp54
(g35
(I4500
I3000
I3500
I1800
tp55
tp56
a(g2
(I4500
I3000
I3500
I1800
tp57
tp58
a(g2
(I4500
I3000
I3500
I1800
tp59
tp60
a(g9
(I4500
I3000
I3500
I1800
tp61
tp62
a(g14
(I4500
I3000
I3500
I1800
tp63
tp64
aa(lp65
a(lp66
a(lp67
a(lp68
a(lp69
a.(lp0
(lp1
(S'Man'
p2
(I1000
I3500
I1200
I1200
tp3
tp4
a(S'Woman'
p5
(I1000
I3500
I1200
I1200
tp6
tp7
a(S'Boy'
p8
(I1000
I3500
I1200
I1200
tp9
tp10
a(S'Girl'
p11
(I1000
I3500
I1200
I1200
tp12
tp13
aa(lp14
(g2
(I7400
I1800
I1200
I1200
tp15
tp16
a(g5
(I7400
I1800
I1200
I1200
tp17
tp18
a(g8
(I7400
I1800
I1200
I1200
tp19
tp20
a(g11
(I7400
I1800
I1200
I1200
tp21
tp22
aa(lp23
(g2
(I4500
I4000
I1200
I1200
tp24
tp25
a(g5
(I4500
I4000
I1200
I1200
tp26
tp27
a(g8
(I4500
I4000
I1200
I1200
tp28
tp29
a(g11
(I4500
I4000
I1200
I1200
tp30
tp31
aa.(lp0
(lp1
(S'Boy'
p2
(I2500
I1800
I1500
I1500
tp3
tp4
a(g2
(I2500
I1800
I1500
I1500
tp5
tp6
a(S'Girl'
p7
(I2500
I1800
I1500
I1500
tp8
tp9
aa(lp10
(g2
(I1800
I5800
I1500
I1500
tp11
tp12
a(g7
(I1800
I5800
I1500
I1500
tp13
tp14
a(g7
(I1800
I5800
I1500
I1500
tp15
tp16
aa(lp17
(g2
(I7000
I2800
I1500
I1500
tp18
tp19
a(g2
(I7000
I2800
I1500
I1500
tp20
tp21
a(g7
(I7000
I2800
I1500
I1500
tp22
tp23
aa.(lp0
(lp1
(S'Woman'
p2
(I0
I0
I1000
I1000
tp3
tp4
a(S'Man'
p5
(I0
I0
I1000
I1000
tp6
tp7
aa(lp8
(g2
(I2500
I0
I1000
I1000
tp9
tp10
a(g5
(I2500
I0
I1000
I1000
tp11
tp12
aa(lp13
(g2
(I7000
I600
I1000
I1000
tp14
tp15
a(g5
(I7000
I600
I1000
I1000
tp16
tp17
aa(lp18
(g2
(I7000
I3500
I1000
I1000
tp19
tp20
a(g5
(I7000
I3500
I1000
I1000
tp21
tp22
aa.(lp0
(lp1
a(lp2
a(lp3
a(lp4
a(lp5
a(lp6
a(lp7
a.(dp0
S'SCHOOL'
p1
(lp2
(lp3
(S'Boy'
p4
(I2500
I1800
I1500
I1500
tp5
tp6
a(g4
(I2500
I1800
I1500
I1500
tp7
tp8
a(S'Girl'
p9
(I2500
I1800
I1500
I1500
tp10
tp11
aa(lp12
(g4
(I1800
I5800
I1500
I1500
tp13
tp14
a(g9
(I1800
I5800
I1500
I1500
tp15
tp16
a(g9
(I1800
I5800
I1500
I1500
tp17
tp18
aa(lp19
(g4
(I7000
I2800
I1500
I1500
tp20
tp21
a(g4
(I7000
I2800
I1500
I1500
tp22
tp23
a(g9
(I7000
I2800
I1500
I1500
tp24
tp25
aasS'FARM'
p26
(lp27
(lp28
(S'Woman'
p29
(I0
I0
I1000
I1000
tp30
tp31
a(S'Man'
p32
(I0
I0
I1000
I1000
tp33
tp34
aa(lp35
(g29
(I2500
I0
I1000
I1000
tp36
tp37
a(g32
(I2500
I0
I1000
I1000
tp38
tp39
aa(lp40
(g29
(I7000
I600
I1000
I1000
tp41
tp42
a(g32
(I7000
I600
I1000
I1000
tp43
tp44
aa(lp45
(g29
(I7000
I3500
I1000
I1000
tp46
tp47
a(g32
(I7000
I3500
I1000
I1000
tp48
tp49
aasS'HOUSE'
p50
(lp51
(lp52
(g29
(I600
I1800
I2400
I2000
tp53
tp54
a(g29
(I600
I1800
I2400
I2000
tp55
tp56
a(g29
(I600
I1800
I2400
I2000
tp57
tp58
a(g4
(I600
I1800
I2400
I2000
tp59
tp60
a(g4
(I600
I1800
I2400
I2000
tp61
tp62
a(g9
(I600
I1800
I2400
I2000
tp63
tp64
a(g9
(I600
I1800
I2400
I2000
tp65
tp66
aa(lp67
a(lp68
a(lp69
a(lp70
a(lp71
(g29
(I2500
I3500
I2000
I2000
tp72
tp73
a(g29
(I2500
I3500
I2000
I2000
tp74
tp75
a(g4
(I2500
I3500
I2000
I2000
tp76
tp77
a(g9
(I2500
I3500
I2000
I2000
tp78
tp79
aa(lp80
a(lp81
a(lp82
(g32
(I4500
I0
I2500
I3000
tp83
tp84
a(g29
(I4500
I0
I2500
I3000
tp85
tp86
a(g9
(I4500
I0
I2500
I3000
tp87
tp88
a(g9
(I4500
I0
I2500
I3000
tp89
tp90
a(g4
(I4500
I0
I2500
I3000
tp91
tp92
a(g4
(I4500
I0
I2500
I3000
tp93
tp94
aa(lp95
a(lp96
a(lp97
a(lp98
a(lp99
a(lp100
a(lp101
(g32
(I4500
I3000
I3500
I1800
tp102
tp103
a(g29
(I4500
I3000
I3500
I1800
tp104
tp105
a(g29
(I4500
I3000
I3500
I1800
tp106
tp107
a(g4
(I4500
I3000
I3500
I1800
tp108
tp109
a(g9
(I4500
I3000
I3500
I1800
tp110
tp111
aa(lp112
a(lp113
a(lp114
a(lp115
a(lp116
asS'HOSPITAL'
p117
(lp118
(lp119
(g32
(I1000
I3500
I1200
I1200
tp120
tp121
a(g29
(I1000
I3500
I1200
I1200
tp122
tp123
a(g4
(I1000
I3500
I1200
I1200
tp124
tp125
a(g9
(I1000
I3500
I1200
I1200
tp126
tp127
aa(lp128
(g32
(I7400
I1800
I1200
I1200
tp129
tp130
a(g29
(I7400
I1800
I1200
I1200
tp131
tp132
a(g4
(I7400
I1800
I1200
I1200
tp133
tp134
a(g9
(I7400
I1800
I1200
I1200
tp135
tp136
aa(lp137
(g32
(I4500
I4000
I1200
I1200
tp138
tp139
a(g29
(I4500
I4000
I1200
I1200
tp140
tp141
a(g4
(I4500
I4000
I1200
I1200
tp142
tp143
a(g9
(I4500
I4000
I1200
I1200
tp144
tp145
aasS'WORKSHOP'
p146
(lp147
(lp148
(g32
(I0
I2400
I1200
I1500
tp149
tp150
a(g32
(I0
I2400
I1200
I1500
tp151
tp152
aa(lp153
(g32
(I1500
I4500
I1200
I1500
tp154
tp155
a(g32
(I1500
I4500
I1200
I1500
tp156
tp157
aa(lp158
(g32
(I6200
I0
I1200
I1500
tp159
tp160
a(g32
(I6200
I0
I1200
I1500
tp161
tp162
aa(lp163
(g32
(I5500
I4500
I1200
I1500
tp164
tp165
a(g32
(I5500
I4500
I1200
I1500
tp166
tp167
aasS'FOUNTAIN'
p168
(lp169
(lp170
a(lp171
a(lp172
a(lp173
a(lp174
a(lp175
a(lp176
as.(lp0
(lp1
I22
aI22
aI22
aI22
aI22
aI22
aI22
aI22
aI22
aI22
aI22
aI22
aI22
aI22
aI22
aI22
aI22
aI22
aI22
aI22
aI22
aI22
aI22
aI22
aI22
aI22
aI22
aI23
aI5
aI5
aI5
aI5
aI5
aI5
aI5
aI5
aI5
aI16
aI29
aI29
aI29
aI29
aI29
aI29
aI29
aI29
aa(lp2
I22
aI22
aI22
aI22
aI22
aI22
aI22
aI22
aI7
aI8
aI22
aI22
aI22
aI22
aI22
aI22
aI22
aI22
aI22
aI22
aI22
aI22
aI22
aI22
aI22
aI7
aI34
aI35
aI5
aI5
aI5
aI5
aI5
aI5
aI5
aI5
aI5
aI12
aI3
aI4
aI29
aI29
aI29
aI29
aI29
aI29
aa(lp3
I22
aI22
aI22
aI22
aI7
aI34
aI34
aI34
aI35
aI33
aI8
aI22
aI22
aI22
aI22
aI22
aI22
aI22
aI22
aI22
aI22
aI22
aI22
aI7
aI34
aI35
aI5
aI5
aI5
aI5
aI5
aI5
aI5
aI5
aI5
aI5
aI5
aI5
aI5
aI12
aI4
aI2
aI4
aI29
aI29
aI29
aa(lp4
I22
aI22
aI7
aI34
aI35
aI5
aI5
aI5
aI5
aI5
aI33
aI8
aI7
aI34
aI8
aI22
aI7
aI34
aI8
aI22
aI7
aI34
aI34
aI35
aI5
aI5
aI5
aI5
aI5
aI5
aI5
aI5
aI5
aI5
aI0
aI1
aI5
aI5
aI5
aI5
aI12
aI13
aI16
aI29
aI29
aI29
aa(lp5
I7
aI34
aI35
aI5
aI5
aI5
aI5
aI5
aI5
aI5
aI5
aI33
aI35
aI5
aI33
aI34
aI35
aI5
aI33
aI34
aI35
aI5
aI5
aI5
aI5
aI5
aI5
aI5
aI5
aI5
aI5
aI5
aI5
aI5
aI12
aI13
aI5
aI5
aI5
aI5
aI5
aI0
aI28
aI29
aI29
aI29
aa(lp6
I35
aI5
aI5
aI5
aI5
aI5
aI5
aI5
aI5
aI5
aI5
aI5
aI5
aI5
aI5
aI5
aI5
aI5
aI5
aI5
aI5
aI5
aI5
aI5
aI5
aI5
aI9
aI10
aI11
aI5
aI5
aI5
aI5
aI5
aI5
aI5
aI5
aI5
aI5
aI5
aI5
aI12
aI4
aI29
aI29
aI29
aa(lp7
I5
aI5
aI5
aI5
aI5
aI5
aI5
aI5
aI5
aI5
aI5
aI0
aI1
aI5
aI5
aI5
aI5
aI5
aI5
aI5
aI5
aI5
aI5
aI5
aI5
aI9
aI20
aI22
aI19
aI11
aI5
aI5
aI5
aI5
aI5
aI5
aI5
aI5
aI5
aI5
aI0
aI27
aI28
aI29
aI29
aI29
aa(lp8
I5
aI5
aI5
aI5
aI5
aI5
aI5
aI5
aI5
aI0
aI1
aI12
aI13
aI5
aI5
aI5
aI5
aI5
aI5
aI5
aI5
aI5
aI5
aI5
aI5
aI21
aI22
aI22
aI22
aI23
aI5
aI5
aI5
aI5
aI5
aI5
aI5
aI5
aI5
aI5
aI12
aI4
aI29
aI29
aI29
aI29
aa(lp9
I5
aI5
aI5
aI5
aI5
aI5
aI5
aI5
aI5
aI12
aI13
aI5
aI5
aI5
aI5
aI5
aI5
aI5
aI5
aI5
aI5
aI5
aI5
aI5
aI5
aI21
aI22
aI22
aI7
aI35
aI5
aI5
aI5
aI5
aI5
aI5
aI5
aI5
aI5
aI5
aI5
aI16
aI29
aI29
aI29
aI29
aa(lp10
I5
aI5
aI5
aI5
aI5
aI5
aI5
aI5
aI9
aI11
aI5
aI5
aI5
aI5
aI5
aI5
aI5
aI5
aI5
aI5
aI5
aI5
aI5
aI5
aI5
aI33
aI34
aI34
aI35
aI5
aI5
aI5
aI5
aI5
aI5
aI5
aI5
aI5
aI5
aI5
aI5
aI16
aI29
aI29
aI29
aI29
aa(lp11
I5
aI5
aI5
aI5
aI5
aI5
aI9
aI10
aI20
aI23
aI5
aI5
aI5
aI5
aI5
aI5
aI5
aI5
aI5
aI5
aI5
aI5
aI5
aI5
aI5
aI5
aI5
aI5
aI5
aI5
aI5
aI5
aI5
aI5
aI5
aI5
aI5
aI5
aI5
aI5
aI5
aI12
aI4
aI29
aI29
aI29
aa(lp12
I5
aI5
aI5
aI5
aI5
aI5
aI21
aI22
aI22
aI23
aI5
aI5
aI5
aI5
aI5
aI5
aI5
aI5
aI5
aI5
aI5
aI5
aI5
aI5
aI5
aI5
aI5
aI5
aI5
aI5
aI5
aI5
aI5
aI5
aI5
aI5
aI5
aI5
aI5
aI5
aI5
aI5
aI12
aI4
aI29
aI29
aa(lp13
I5
aI5
aI5
aI5
aI5
aI5
aI33
aI8
aI22
aI19
aI11
aI5
aI5
aI5
aI5
aI9
aI10
aI11
aI5
aI5
aI5
aI5
aI5
aI5
aI5
aI5
aI5
aI5
aI5
aI5
aI5
aI5
aI5
aI5
aI5
aI5
aI5
aI5
aI5
aI5
aI5
aI5
aI5
aI16
aI29
aI29
aa(lp14
I0
aI1
aI5
aI5
aI5
aI5
aI5
aI21
aI22
aI7
aI35
aI5
aI5
aI5
aI5
aI21
aI22
aI23
aI5
aI5
aI5
aI5
aI5
aI5
aI5
aI5
aI5
aI5
aI5
aI5
aI5
aI5
aI5
aI5
aI5
aI5
aI5
aI5
aI5
aI5
aI5
aI5
aI5
aI12
aI4
aI29
aa(lp15
I12
aI13
aI5
aI5
aI5
aI5
aI5
aI21
aI22
aI23
aI5
aI5
aI5
aI5
aI5
aI33
aI34
aI35
aI5
aI5
aI5
aI5
aI5
aI5
aI9
aI11
aI5
aI5
aI5
aI5
aI5
aI5
aI5
aI5
aI5
aI5
aI5
aI5
aI5
aI5
aI5
aI5
aI5
aI5
aI12
aI3
aa(lp16
I1
aI5
aI5
aI5
aI5
aI5
aI5
aI33
aI34
aI35
aI5
aI5
aI5
aI5
aI5
aI5
aI5
aI5
aI5
aI5
aI5
aI5
aI5
aI5
aI33
aI35
aI5
aI5
aI5
aI5
aI5
aI5
aI5
aI5
aI5
aI5
aI5
aI5
aI5
aI5
aI5
aI0
aI1
aI5
aI5
aI5
aa(lp17
I14
aI5
aI5
aI5
aI5
aI5
aI5
aI5
aI5
aI5
aI5
aI5
aI5
aI5
aI5
aI5
aI5
aI5
aI5
aI5
aI5
aI5
aI5
aI5
aI5
aI5
aI5
aI5
aI5
aI5
aI5
aI5
aI5
aI5
aI0
aI1
aI5
aI5
aI5
aI5
aI5
aI12
aI13
aI5
aI5
aI5
aa(lp18
I26
aI1
aI0
aI27
aI1
aI5
aI5
aI5
aI5
aI5
aI5
aI5
aI5
aI5
aI5
aI5
aI5
aI5
aI5
aI5
aI5
aI5
aI5
aI5
aI5
aI5
aI5
aI5
aI5
aI5
aI5
aI5
aI5
aI5
aI12
aI13
aI5
aI5
aI5
aI5
aI5
aI5
aI5
aI0
aI1
aI5
aa(lp19
I29
aI14
aI12
aI3
aI13
aI5
aI5
aI5
aI5
aI9
aI10
aI11
aI5
aI5
aI5
aI5
aI5
aI5
aI5
aI5
aI5
aI5
aI5
aI5
aI5
aI5
aI5
aI5
aI5
aI5
aI5
aI5
aI5
aI5
aI5
aI5
aI5
aI5
aI5
aI5
aI5
aI5
aI5
aI12
aI13
aI5
aa(lp20
I2
aI13
aI5
aI5
aI5
aI5
aI5
aI5
aI5
aI21
aI22
aI23
aI5
aI5
aI5
aI5
aI5
aI0
aI1
aI5
aI5
aI5
aI5
aI5
aI5
aI5
aI5
aI5
aI5
aI5
aI5
aI5
aI5
aI5
aI5
aI5
aI5
aI5
aI5
aI5
aI5
aI5
aI5
aI5
aI5
aI5
aa(lp21
I13
aI5
aI5
aI5
aI5
aI5
aI5
aI5
aI5
aI33
aI34
aI35
aI5
aI5
aI5
aI5
aI5
aI12
aI13
aI5
aI5
aI5
aI5
aI5
aI5
aI5
aI5
aI5
aI5
aI5
aI5
aI5
aI5
aI5
aI5
aI5
aI5
aI5
aI5
aI5
aI5
aI5
aI5
aI5
aI5
aI5
aa(lp22
I5
aI5
aI5
aI5
aI5
aI5
aI5
aI5
aI5
aI5
aI5
aI5
aI5
aI5
aI5
aI9
aI10
aI11
aI5
aI5
aI5
aI9
aI10
aI11
aI5
aI5
aI5
aI5
aI5
aI5
aI5
aI5
aI5
aI5
aI5
aI5
aI5
aI5
aI5
aI5
aI5
aI5
aI5
aI5
aI5
aI5
aa(lp23
I5
aI5
aI5
aI5
aI5
aI5
aI5
aI5
aI5
aI5
aI5
aI5
aI5
aI5
aI5
aI21
aI22
aI23
aI5
aI5
aI5
aI21
aI22
aI23
aI5
aI5
aI5
aI5
aI5
aI5
aI5
aI5
aI5
aI5
aI5
aI5
aI5
aI5
aI5
aI5
aI5
aI5
aI5
aI5
aI5
aI5
aa(lp24
I5
aI5
aI5
aI5
aI5
aI5
aI5
aI5
aI5
aI5
aI5
aI5
aI5
aI5
aI5
aI33
aI34
aI35
aI5
aI5
aI5
aI33
aI34
aI35
aI5
aI5
aI5
aI5
aI5
aI5
aI5
aI5
aI5
aI5
aI5
aI5
aI5
aI5
aI5
aI5
aI5
aI5
aI5
aI9
aI10
aI10
aa(lp25
I5
aI5
aI5
aI5
aI5
aI5
aI5
aI5
aI5
aI5
aI5
aI5
aI5
aI5
aI5
aI5
aI5
aI5
aI5
aI5
aI5
aI5
aI5
aI5
aI5
aI5
aI5
aI5
aI5
aI5
aI5
aI5
aI5
aI5
aI5
aI5
aI5
aI5
aI9
aI11
aI5
aI5
aI5
aI21
aI22
aI22
aa(lp26
I5
aI5
aI5
aI5
aI5
aI5
aI9
aI11
aI5
aI5
aI5
aI5
aI5
aI5
aI5
aI5
aI5
aI5
aI5
aI5
aI5
aI5
aI5
aI5
aI5
aI5
aI5
aI5
aI5
aI5
aI5
aI5
aI5
aI5
aI5
aI5
aI5
aI5
aI33
aI35
aI5
aI5
aI5
aI33
aI8
aI22
aa(lp27
I27
aI1
aI5
aI5
aI9
aI10
aI20
aI23
aI5
aI5
aI5
aI5
aI5
aI5
aI5
aI5
aI5
aI5
aI5
aI5
aI5
aI5
aI5
aI5
aI5
aI5
aI5
aI5
aI5
aI5
aI9
aI11
aI5
aI5
aI5
aI5
aI5
aI5
aI5
aI5
aI5
aI5
aI5
aI5
aI21
aI22
aa(lp28
I29
aI26
aI1
aI5
aI21
aI22
aI22
aI23
aI5
aI5
aI5
aI5
aI5
aI5
aI5
aI5
aI5
aI5
aI5
aI5
aI5
aI5
aI5
aI5
aI5
aI5
aI5
aI5
aI5
aI5
aI33
aI35
aI5
aI5
aI5
aI5
aI5
aI5
aI5
aI5
aI5
aI5
aI5
aI5
aI21
aI22
aa(lp29
I29
aI29
aI14
aI5
aI33
aI34
aI34
aI35
aI5
aI5
aI5
aI5
aI5
aI5
aI5
aI5
aI5
aI5
aI5
aI9
aI11
aI5
aI5
aI5
aI5
aI5
aI5
aI5
aI5
aI5
aI5
aI5
aI5
aI5
aI5
aI5
aI5
aI5
aI5
aI5
aI5
aI5
aI9
aI10
aI20
aI22
aa(lp30
I29
aI29
aI14
aI5
aI5
aI5
aI0
aI1
aI5
aI5
aI5
aI5
aI5
aI5
aI5
aI5
aI5
aI5
aI9
aI20
aI19
aI10
aI10
aI11
aI5
aI5
aI5
aI5
aI5
aI5
aI5
aI5
aI5
aI5
aI5
aI5
aI5
aI5
aI5
aI5
aI5
aI5
aI33
aI8
aI22
aI22
aa(lp31
I29
aI29
aI26
aI1
aI5
aI0
aI28
aI26
aI1
aI5
aI5
aI5
aI5
aI5
aI5
aI9
aI10
aI10
aI20
aI22
aI22
aI22
aI22
aI19
aI11
aI5
aI5
aI9
aI10
aI11
aI5
aI5
aI5
aI9
aI10
aI11
aI5
aI5
aI5
aI9
aI10
aI11
aI5
aI21
aI22
aI22
aa(lp32
I29
aI29
aI29
aI26
aI27
aI28
aI29
aI29
aI14
aI5
aI5
aI5
aI5
aI5
aI5
aI21
aI22
aI22
aI22
aI22
aI22
aI22
aI22
aI22
aI19
aI11
aI5
aI21
aI22
aI23
aI5
aI5
aI5
aI21
aI22
aI23
aI5
aI5
aI5
aI21
aI22
aI23
aI5
aI21
aI22
aI22
aa(lp33
I29
aI29
aI29
aI29
aI29
aI29
aI29
aI29
aI26
aI1
aI5
aI5
aI5
aI5
aI5
aI21
aI22
aI22
aI22
aI22
aI22
aI22
aI22
aI22
aI22
aI19
aI10
aI20
aI22
aI23
aI5
aI5
aI5
aI33
aI34
aI35
aI5
aI5
aI9
aI20
aI22
aI19
aI10
aI20
aI22
aI22
aa(lp34
I29
aI29
aI29
aI29
aI29
aI29
aI29
aI29
aI29
aI14
aI5
aI5
aI5
aI5
aI5
aI21
aI22
aI22
aI22
aI22
aI22
aI22
aI22
aI22
aI22
aI22
aI22
aI22
aI22
aI23
aI5
aI5
aI5
aI5
aI5
aI5
aI5
aI5
aI21
aI22
aI22
aI22
aI22
aI22
aI22
aI22
aa.