(lp0
S'HOUSE'
p1
acpygame
__rect_constructor
p2
(I880
I2152
I300
I360
tp3
Rp4
a.(lp0
S'HOUSE'
p1
acpygame
__rect_constructor
p2
(I1620
I1260
I300
I360
tp3
Rp4
a.(lp0
S'FOUNTAIN'
p1
acpygame
__rect_constructor
p2
(I2430
I1460
I192
I197
tp3
Rp4
a.(lp0
S'FARM'
p1
acpygame
__rect_constructor
p2
(I695
I1205
I500
I516
tp3
Rp4
a.