(lp0
S'HOUSE'
p1
acpygame
__rect_constructor
p2
(I510
I1696
I300
I360
tp3
Rp4
a.(lp0
S'HOUSE'
p1
acpygame
__rect_constructor
p2
(I158
I1864
I300
I360
tp3
Rp4
a.(lp0
S'FOUNTAIN'
p1
acpygame
__rect_constructor
p2
(I1009
I2054
I192
I197
tp3
Rp4
a.(lp0
S'FARM'
p1
acpygame
__rect_constructor
p2
(I1729
I1704
I500
I516
tp3
Rp4
a.(lp0
S'FOUNTAIN'
p1
acpygame
__rect_constructor
p2
(I1419
I2804
I192
I197
tp3
Rp4
a.(lp0
S'FOUNTAIN'
p1
acpygame
__rect_constructor
p2
(I1859
I2749
I192
I197
tp3
Rp4
a.