(lp0
S'HOSPITAL'
p1
acpygame
__rect_constructor
p2
(I1930
I2355
I64
I65
tp3
Rp4
a.(lp0
S'SCHOOL'
p1
acpygame
__rect_constructor
p2
(I2845
I1500
I96
I74
tp3
Rp4
a.(lp0
S'FOUNTAIN'
p1
acpygame
__rect_constructor
p2
(I3960
I1540
I40
I35
tp3
Rp4
a.(lp0
S'HOUSE'
p1
acpygame
__rect_constructor
p2
(I4690
I2235
I76
I64
tp3
Rp4
a.(lp0
S'FOUNTAIN'
p1
acpygame
__rect_constructor
p2
(I4375
I2840
I40
I35
tp3
Rp4
a.(lp0
S'FOUNTAIN'
p1
acpygame
__rect_constructor
p2
(I5035
I1520
I40
I35
tp3
Rp4
a.(lp0
S'FOUNTAIN'
p1
acpygame
__rect_constructor
p2
(I4430
I955
I40
I35
tp3
Rp4
a.