(lp0
S'HOUSE'
p1
acpygame
__rect_constructor
p2
(I736
I2042
I192
I204
tp3
Rp4
a.(lp0
S'HOUSE'
p1
acpygame
__rect_constructor
p2
(I544
I1606
I192
I204
tp3
Rp4
a.(lp0
S'FOUNTAIN'
p1
acpygame
__rect_constructor
p2
(I910
I2405
I40
I44
tp3
Rp4
a.(lp0
S'FOUNTAIN'
p1
acpygame
__rect_constructor
p2
(I1125
I2015
I40
I44
tp3
Rp4
a.