(lp0
S'HOUSE'
p1
acpygame
__rect_constructor
p2
(I532
I1978
I300
I360
tp3
Rp4
a.(lp0
S'HOUSE'
p1
acpygame
__rect_constructor
p2
(I726
I2366
I300
I360
tp3
Rp4
a.(lp0
S'FOUNTAIN'
p1
acpygame
__rect_constructor
p2
(I349
I2786
I192
I197
tp3
Rp4
a.(lp0
S'FARM'
p1
acpygame
__rect_constructor
p2
(I896
I2729
I500
I516
tp3
Rp4
a.(lp0
S'SCHOOL'
p1
acpygame
__rect_constructor
p2
(I1349
I1809
I450
I420
tp3
Rp4
a.