(lp0
S'action'
p1
a(lp2
I7
aS'\n \n \n \nIn this beautiful country called India, there is a Gokul village. The village of gokul is governed by Kamat who is the Sarpanch(head) of the village. But Kamat is growing old and needs a successor. Can you, his younger son, take on the responsibilities of the village and make the village prosper.'
p3
aa.(lp0
S'action'
p1
a(lp2
I1
a(lp3
(lp4
S'Kamat'
p5
aS'Son, I will teach you about the various aspects towards running a village today. Are you ready to learn? Let us go to the village of Abujamara.  '
p6
aS'Son'
p7
aS'Father, this is no village, it is just empty land.... '
p8
ag5
aS'Yes, this is the place where once stood the village of Abujamara. The village became a barren land when Ganga cursed the people of Abujamara by changing its course and flooding the Abujamara village. The people are homeless are we will help rebuild their village.'
p9
aaS'Wfpwork.png'
p10
aaa.(lp0
S'action'
p1
a(lp2
I9
aS'Build a hut to shelter the people of Abujamara. You can build a hut by clicking on Build->Hut.'
p3
aa.(lp0
S'condition'
p1
a(lp2
S'AND'
p3
aI-1
a(lp4
(lp5
I01
aI1
aS'HOUSE'
p6
aS''
p7
aS'=='
p8
ag7
aI0
aaaa.(lp0
S'action'
p1
a(lp2
I9
aS'When you build a hut, some amount of your resources are utilized. For each Hut that you build, 10 units of bricks, 8 units of Tools and 8 units of Water are used. Also, people are required to build a hut. Similarly, anything you build will require materials such as bricks and labour. Try building another hut.'
p3
aa.(lp0
S'condition'
p1
a(lp2
S'AND'
p3
aI-1
a(lp4
(lp5
I01
aI1
aS'HOUSE'
p6
aS''
p7
aS'=='
p8
ag7
aI0
aaaa.(lp0
S'action'
p1
a(lp2
I9
aS'When you build a Hut the Housing bar on the lower right corner of your screen increases. The more this bar is filled the more number of people have houses available for them. High progress bars indicate a happy and prosperous village.'
p3
aa.(lp0
S'action'
p1
a(lp2
I9
aS'At the lower left corner you can see the total population and total sheltered people. The total population increases with time. Building the Houses increases the sheltered population. You should always try to build enough houses to provide shelter to all the people.'
p3
aa.(lp0
S'action'
p1
a(lp2
I9
aS'Water, the most basic necessity of life, must always be present to support any kind of habitation. Build a Well for people to get water from.'
p3
aa.(lp0
S'condition'
p1
a(lp2
S'AND'
p3
aI-1
a(lp4
(lp5
I00
aI1
aS'FOUNTAIN'
p6
aS''
p7
aS'>='
p8
ag7
aI1
aaaa.(lp0
S'action'
p1
a(lp2
I9
aS'The next basic necessity of a village is Food. To grow food, you will need to build farms. It is best to provide a healthy mix of Rice, Beans and Vegetables and Fruits. This will ensure healthy variety and nutrition.You can choose the type of production from the bar-chart for your farm. Click on Build>Farm and adjust the production'
p3
aa.(lp0
S'condition'
p1
a(lp2
S'AND'
p3
aI-1
a(lp4
(lp5
I00
aI1
aS'FARM'
p6
aS''
p7
aS'>='
p8
ag7
aI1
aaaa.(lp0
S'action'
p1
a(lp2
I9
aS'As you continue building you will require Tools and Bricks. If you run out of them you can buy them from the market.Buying anything requires money and you can see the amount of money available to you in the top right corner of the screen. '
p3
aa.(lp0
S'action'
p1
a(lp2
I9
aS'The settlement has grown, the children here need a place to study. Build a school for them. '
p3
aa.(lp0
S'condition'
p1
a(lp2
S'AND'
p3
aI-1
a(lp4
(lp5
I00
aI1
aS'SCHOOL'
p6
aS''
p7
aS'>='
p8
ag7
aI1
aaaa.(lp0
S'action'
p1
a(lp2
I9
aS'Well done. But there are no books in this school. Buy the books for the school from the market. The Market Window can be opened by clicking on the market button in the bottom. Once you open the market window, you can click on the thing you need to buy and sell. Then select the quantity in which it needs to be bought or sold'
p3
aa.(lp0
S'condition'
p1
a(lp2
S'AND'
p3
aI-1
a(lp4
(lp5
I01
aI6
aS''
p6
aS'BOOKS'
p7
aS'=='
p8
ag6
aI0
aaaa.(lp0
S'action'
p1
a(lp2
I9
aS'The upgrade button provides technological upgrades.Try upgrading the huts with bricks.Click on the Upgrade and then select Hut'
p3
aa.(lp0
S'condition'
p1
a(lp2
S'AND'
p3
aI-1
a(lp4
(lp5
I00
aI2
aS'HOUSE'
p6
aS''
p7
aS'>='
p8
ag7
aI1
aaaa.(lp0
S'action'
p1
a(lp2
I9
aS'Technology upgrades provide better buildings with capacity to house more workers and produce more resources. Thus, they are usually helpful in increasing the prosperity of the village. Upgrade your school'
p3
aa.(lp0
S'condition'
p1
a(lp2
S'AND'
p3
aI-1
a(lp4
(lp5
I00
aI2
aS'SCHOOL'
p6
aS''
p7
aS'>='
p8
ag7
aI1
aaaa.(lp0
S'action'
p1
a(lp2
I9
aS'You should notice that upgrading a facility increases its productivity. The number of children taught in the School have been increased considerable, also the quality of education is now better. The progress bars have also filled up more.'
p3
aa.(lp0
S'action'
p1
a(lp2
I9
aS'People areound are idyling in the village, you should build a workshop to create more work for them. Building a workshop also adds Bricks to your village stockpile'
p3
aa.(lp0
S'condition'
p1
a(lp2
S'AND'
p3
aI-1
a(lp4
(lp5
I00
aI1
aS'WORKSHOP'
p6
aS''
p7
aS'=='
p8
ag7
aI1
aaaa.(lp0
S'action'
p1
a(lp2
I9
aS'You village has grown considerably now, hygiene and healthcare are the two the most important aspect of a healthy living. You must build a hosptial now for people to get good treatment and medicine.'
p3
aa.(lp0
S'condition'
p1
a(lp2
S'AND'
p3
aI-1
a(lp4
(lp5
I00
aI1
aS'HOSPITAL'
p6
aS''
p7
aS'>='
p8
ag7
aI1
aaaa.(lp0
S'action'
p1
a(lp2
I9
aS'You will have to buy medicine from the market for hospital to run!'
p3
aa.(lp0
S'condition'
p1
a(lp2
S'AND'
p3
aI-1
a(lp4
(lp5
I01
aI6
aS''
p6
aS'MEDICINE'
p7
aS'=='
p8
ag6
aI0
aaaa.(lp0
S'action'
p1
a(lp2
I7
aS'Your village has now taken the first step towards prosperity. Congratulations!'
p3
aa.(lp0
S'action'
p1
a(lp2
I2
aS''
p3
aa.(lp0
S'action'
p1
a(lp2
I1
a(lp3
(lp4
S'Kamat'
p5
aS'Nice work with the setting up of the new village. I am really impressed.'
p6
aS'Son'
p7
aS'Thanks'
p8
ag5
aS'But I wonder, if you are capable enough to work without my guidance now that you have learnt the basics of building a village.'
p9
ag5
aS'I will leave you the responsibility of the village for the next 3 months while I go out for your cousin sister wedding.'
p10
aaS'Wfpwork.png'
p11
aaa.(lp0
S'action'
p1
a(lp2
I9
aS'Do not let any of the progress bars drop below 35... or else Kamat will not be very pleased. Good Luck!'
p3
aa.(lp0
S'condition'
p1
a(lp2
S'NOR'
p3
aI90
a(lp4
(lp5
I00
aI3
aS''
p6
ag6
aS'>='
p7
aS'HOUSING'
p8
aI35
aa(lp9
I00
aI3
ag6
ag6
ag7
aS'HEALTH'
p10
aI35
aa(lp11
I00
aI3
ag6
ag6
ag7
aS'EDUCATION'
p12
aI35
aa(lp13
I00
aI3
ag6
ag6
ag7
aS'NUTRITION'
p14
aI35
aa(lp15
I00
aI3
ag6
ag6
ag7
aS'TRAINING'
p16
aI35
aaaa.(lp0
S'actionTrue'
p1
a(lp2
I1
a(lp3
(lp4
S'Kamat'
p5
aS'Well done Son. It seems that you are capable of handling the village after me.'
p6
aaS'prosper.png'
p7
aaa.(lp0
S'actionTrue'
p1
a(lp2
I2
aS''
p3
aa.(lp0
S'actionFalse'
p1
a(lp2
I8
aS'You were not able to maintain the village properly. You were not able to complete the task given to you. You must retry this level to reach the next level.'
p3
aa.(lp0
S'actionFalse'
p1
a(lp2
I3
aS''
p3
aa.(lp0
S'action'
p1
a(lp2
I1
a(lp3
(lp4
S'Kamat'
p5
aS'Well done son, you have certainly not disappointed me. But our village is now running low on money.'
p6
ag5
aS'I will give you four months to bring more cash into the village. A cash reserve always comes in handy in times of calamities.'
p7
ag5
aS'Also, more cash reserves will enable us to setup more buildings and buy materials and food to improve the condition of our people.'
p8
ag5
aS'As you have already learnt that Tools made in workshops can be traded in market to earn money, you should focus on that.'
p9
aaS'Wfpwork.png'
p10
aaa.(lp0
S'action'
p1
a(lp2
I9
aS'Earn Rs. 5000 more in the next 4 months. But remember, this should not come at the cost of village condition. Do not let the progress bars fall below 25. Good Luck!'
p3
aa.(lp0
S'condition'
p1
a(lp2
S'NOR'
p3
aI120
a(lp4
(lp5
I00
aI3
aS''
p6
ag6
aS'>='
p7
aS'HOUSING'
p8
aI25
aa(lp9
I00
aI3
ag6
ag6
ag7
aS'HEALTH'
p10
aI25
aa(lp11
I00
aI3
ag6
ag6
ag7
aS'EDUCATION'
p12
aI25
aa(lp13
I00
aI3
ag6
ag6
ag7
aS'NUTRITION'
p14
aI25
aa(lp15
I00
aI3
ag6
ag6
ag7
aS'TRAINING'
p16
aI25
aaaa.(lp0
S'actionFalse'
p1
a(lp2
I8
aS'You were not able to maintain the village properly. You were not able to complete the task given to you. You must retry this level to reach the next level.'
p3
aa.(lp0
S'actionFalse'
p1
a(lp2
I3
aS''
p3
aa.(lp0
S'condition'
p1
a(lp2
S'NOR'
p3
aI1
a(lp4
(lp5
I00
aI5
aS''
p6
ag6
aS'>='
p7
ag6
aI5000
aaaa.(lp0
S'actionTrue'
p1
a(lp2
I2
aS''
p3
aa.(lp0
S'actionFalse'
p1
a(lp2
I8
aS'You were not able to maintain the village properly. You were not able to complete the task given to you. You must retry this level to reach the next level.'
p3
aa.(lp0
S'actionFalse'
p1
a(lp2
I3
aS''
p3
aa.(lp0
S'action'
p1
a(lp2
I1
a(lp3
(lp4
S'Kamat'
p5
aS'Respected members of Panchayat, my son has brought Rs 5000 more into the village funds. Now, it is for us to decide what needs to be done with it.'
p6
aaS'Wfpwork.png'
p7
aaa.(lp0
S'action'
p1
a(lp2
I7
aS'Panchayat discusses the matter in the village assembly....'
p3
aa.(lp0
S'action'
p1
a(lp2
I1
a(lp3
(lp4
S'Panch'
p5
aS'The Panchayat has reached a decision. We will invest the money in building more schools.'
p6
aS'Kamat'
p7
aS'Yes, children are the future of our village. We want to teach them so that they are able to stand on their feet and bring wealth and prosperity to the village later on.'
p8
ag5
aS'Yes, and since your son has proved himself adept in adminstering. We want him to take charge of the money earnt and use it to for educating the children of our village.'
p9
aS'Son'
p10
aS'It will be my pleasure.'
p11
aaS'Wfpwork.png'
p12
aaa.(lp0
S'action'
p1
a(lp2
I9
aS'Your mission is simple. Increase the progress bar of Education to 70 while not letting any of the other progress bars to fall below 30 within 3 months.'
p3
aa.(lp0
S'condition'
p1
a(lp2
S'NOR'
p3
aI90
a(lp4
(lp5
I00
aI3
aS''
p6
ag6
aS'>='
p7
aS'HOUSING'
p8
aI30
aa(lp9
I00
aI3
ag6
ag6
ag7
aS'HEALTH'
p10
aI30
aa(lp11
I00
aI3
ag6
ag6
ag7
aS'NUTRITION'
p12
aI30
aa(lp13
I00
aI3
ag6
ag6
ag7
aS'TRAINING'
p14
aI30
aaaa.(lp0
S'actionFalse'
p1
a(lp2
I8
aS'You were not able to maintain the village properly. You were not able to complete the task given to you. You must retry this level to reach the next level.'
p3
aa.(lp0
S'actionFalse'
p1
a(lp2
I3
aS''
p3
aa.(lp0
S'condition'
p1
a(lp2
S'NOR'
p3
aI1
a(lp4
(lp5
I00
aI3
aS''
p6
ag6
aS'>='
p7
aS'HOUSING'
p8
aI30
aaaa.(lp0
S'actionTrue'
p1
a(lp2
I2
aS''
p3
aa.(lp0
S'actionFalse'
p1
a(lp2
I8
aS'You were not able to maintain the village properly. You were not able to complete the task given to you. You must retry this level to reach the next level.'
p3
aa.(lp0
S'actionFalse'
p1
a(lp2
I3
aS''
p3
aa.(lp0
S'action'
p1
a(lp2
I1
a(lp3
(lp4
S'Kamat'
p5
aS'Welcome Ajmal, my son. How have your studies been going on.'
p6
aS'Ajmal'
p7
aS'Thanks father. I am a registered physician now... but what is this. The village hygiene is so poor. This village is a breeding ground for all the diseases.'
p8
ag7
aS'With stagnant water and unhygenic market, diseases are bound to follow. All these diseases will soon take a form of an epidemic if nothing is done for this now.'
p9
ag5
aS'Can you work with your younger brother to help avert this situation.'
p10
ag7
aS'Sure father.'
p11
ag7
aS'For providing good health, we need to provide good nutritious food to the villagers. A nutritious diet consists of all the components such as Wheat, Fruits, vegetables and beans.'
p12
ag7
aS'Also we need to setup hospitals and educate people about good practices and simple measures to avoid diseases. Schools setup by you are already doing a good job of it. We just need to bring some good doctors here'
p13
ag7
aS'Can you do all this to avoid an epidemic'
p14
aaS'Wfpwork.png'
p15
aaa.(lp0
S'action'
p1
a(lp2
I9
aS'Yes, this mission is harder. Take the progress bars for health to 65 and nutrition above 45 and you will be termed as pass.'
p3
aa.(lp0
S'condition'
p1
a(lp2
S'AND'
p3
aI-1
a(lp4
(lp5
I00
aI3
aS''
p6
ag6
aS'>='
p7
aS'HEALTH'
p8
aI65
aa(lp9
I00
aI3
ag6
ag6
ag7
aS'NUTRITION'
p10
aI45
aaaa.(lp0
S'actionFalse'
p1
a(lp2
I8
aS'You were able to complete the task assigned to you. \nGood Going!!'
p3
aa.(lp0
S'action'
p1
a(lp2
I2
aS''
p3
aa.(lp0
S'action'
p1
a(lp2
I1
a(lp3
(lp4
S'Farmer'
p5
aS'Save us save us ....'
p6
aS'Kamat'
p7
aS'What happened. Where are you running from? Where are your cattle and belongings.'
p8
ag5
aS'I have none sir.. I have ran away from my home with my kids and wife since there is a war going on.'
p9
ag5
aS'There will be more like me coming. I will work hard, but please give me a place to live peacefully.'
p10
aaS'Wfpwork.png'
p11
aaa.(lp0
S'action'
p1
a(lp2
I7
aS'Kamat and the Panchayat discusses...'
p3
aa.(lp0
S'action'
p1
a(lp2
I1
a(lp3
(lp4
S'Panch'
p5
aS'Panchayat has decided that we will let the incoming immigrants into our village and will treat them as our guests. Athiti Devo Bhav.'
p6
aaS'Wfpwork.png'
p7
aaa.(lp0
S'action'
p1
a(lp2
I9
aS'It seems as if there are not enough huts for all the incoming immigrants. Build more huts and increase the progress bar for housing till 80. Also increase the progress for Nutrition upto 50.'
p3
aa.(lp0
S'condition'
p1
a(lp2
S'AND'
p3
aI-1
a(lp4
(lp5
I00
aI3
aS''
p6
ag6
aS'>='
p7
aS'HOUSING'
p8
aI80
aa(lp9
I00
aI3
ag6
ag6
ag7
aS'NUTRITION'
p10
aI50
aaaa.(lp0
S'actionFalse'
p1
a(lp2
I8
aS'You were able to complete the task assigned to you. \nGood Going!!'
p3
aa.(lp0
S'action'
p1
a(lp2
I2
aS''
p3
aa.(lp0
S'action'
p1
a(lp2
I1
a(lp3
(lp4
S'Panch'
p5
aS'Good day, members of the Panchayat. It has nearly been 4 months since the first immigrants came to our village.'
p6
ag5
aS'But most of them are sitting idle, since they were originally farmers and have no farms now.'
p7
aS'Kamat'
p8
aS'So, what. We will train them in our workshops to produce bricks for our village. Also, we can train them as labourers and they will become a part and parcel of the village.'
p9
aaS'Wfpwork.png'
p10
aaa.(lp0
S'action'
p1
a(lp2
I9
aS'Good job recovering from the calamity. Train your people so that they turn into useful resources. Increase the training progress bar to 70 to pass this mission.'
p3
aa.(lp0
S'condition'
p1
a(lp2
S'AND'
p3
aI-1
a(lp4
(lp5
I00
aI3
aS''
p6
ag6
aS'>='
p7
aS'TRAINING'
p8
aI70
aaaa.(lp0
S'actionFalse'
p1
a(lp2
I8
aS'You were able to complete the task assigned to you. \nGood Going!!'
p3
aa.(lp0
S'action'
p1
a(lp2
I2
aS''
p3
aa.(lp0
S'action'
p1
a(lp2
I1
a(lp3
(lp4
S'Farmer'
p5
aS'Sarpanch ji, there is no water. The crops are dying. Help us'
p6
aS'Priest'
p7
aS'How can Sarpanch ji help. It is the rain god: Indra who is displeased with us. Let us hold a pooja to please Indra.'
p8
aS'Kamat'
p9
aS'I will do what I can.'
p10
aaS'drought.png'
p11
aaa.(lp0
S'action'
p1
a(lp2
I1
a(lp3
(lp4
S'Kamat'
p5
aS'Son...'
p6
aS'Son'
p7
aS'Yes father, is there anything I can do for you.'
p8
ag5
aS'Yes son, the monsoon has deserted us. The crops are dying. Farmers believe it is the Indra god who is displeased, but you know better.'
p9
ag5
aS'They will be holding a pooja soon. But we need to do more than that.'
p10
ag7
aS'Yes Father.'
p11
aaS'drought.png'
p12
aaa.(lp0
S'action'
p1
a(lp2
I9
aS'Do not let the nutrition progress drop below 50% and also donot let the water level fall below 500 for the next 4 months.'
p3
aa.(lp0
S'condition'
p1
a(lp2
S'NOR'
p3
aI120
a(lp4
(lp5
I00
aI3
aS''
p6
ag6
aS'>='
p7
aS'NUTRITION'
p8
aI48
aa(lp9
I00
aI4
ag6
aS'WATER'
p10
ag7
ag6
aI500
aaaa.(lp0
S'actionTrue'
p1
a(lp2
I1
a(lp3
(lp4
S'Farmer'
p5
aS'Thank you, Sarpanchji for bringing us out from such a grave problem. Without your help, we along with our families would have died of hunger.'
p6
aS'Kamat'
p7
aS'Well this time it wasnt me. Its my son, who should be getting the credit of all this work.'
p8
aS'Son'
p9
aS'Thanks, father. But it was all due to your guidance and support only that I am able to serve for the prosperity of the village.'
p10
aaS'happy.png'
p11
aaa.(lp0
S'actionTrue'
p1
a(lp2
I6
aS'WFP has planned to teach the farmers of your village. \n\nThey would be helping the farmers in increasing the productivity by helping them in doing proper irrigation of the farms. They would help farmers in implementing techniques like Crop Rotation, using Fertilizers etc, so that the productivity of the farms increase and the fertility of the soil remains intact.\n\nGood Work!!'
p3
aa.(lp0
S'actionTrue'
p1
a(lp2
I2
aS''
p3
aa.(lp0
S'actionFalse'
p1
a(lp2
I8
aS'You were not able to maintain the village properly.\n\nYou were not able to complete the task given to you.\n\nYou must retry this level to reach the next level.'
p3
aa.(lp0
S'actionFalse'
p1
a(lp2
I3
aS''
p3
aa.(lp0
S'action'
p1
a(lp2
I1
a(lp3
(lp4
S'Kamat'
p5
aS'Son, I am getting old, but I have a faint feeling that something bad is about to happen.'
p6
aS'Son'
p7
aS'Why do you think so, father?'
p8
ag5
aS'The signs are there in the animals. Look how the cattle and the sheep are getting restless. They are the ones who know first that the Gods are angry.'
p9
aaS'earthquake_st.png'
p10
aaa.(lp0
S'action'
p1
a(lp2
I4
aS''
p3
aa.(lp0
S'action'
p1
a(lp2
I7
aS' An earthquake strikes the village.\n\nKamat dies during the Earthquake.\n\nAjmal also comes back to the village after getting this news.'
p3
aa.(lp0
S'action'
p1
a(lp2
I1
a(lp3
(lp4
S'Ajmal'
p5
aS'Brother, the responsibility to manage the village is up to you now. you must help the people of the village in recovering from this calamity.'
p6
aS'Son'
p7
aS'But bhaiyya, I wouldnt  be able to do all this without Fathers help and support.'
p8
ag5
aS'Father had a vision for this village. It had taken him a lifetime to setup this village. You must work for his mission.'
p9
ag5
aS'You must re build everything and get the village back on the path to progress and prosperity.'
p10
ag7
aS'Dont worry brother; I will rebuild the village to its former glory.'
p11
aaS'earthquake_st.png'
p12
aaa.(lp0
S'action'
p1
a(lp2
I9
aS'Mission Objective: Rebuild the village and bring the progress levels to 40%'
p3
aa.(lp0
S'condition'
p1
a(lp2
S'AND'
p3
aI-1
a(lp4
(lp5
I00
aI3
aS''
p6
ag6
aS'>='
p7
aS'HOUSING'
p8
aI40
aa(lp9
I00
aI3
ag6
ag6
ag7
aS'HEALTH'
p10
aI40
aa(lp11
I00
aI3
ag6
ag6
ag7
aS'EDUCATION'
p12
aI40
aa(lp13
I00
aI3
ag6
ag6
ag7
aS'NUTRITION'
p14
aI40
aa(lp15
I00
aI3
ag6
ag6
ag7
aS'TRAINING'
p16
aI40
aaaa.(lp0
S'action'
p1
a(lp2
I6
aS'The village Panchayat has decided to select you as the next Sarpanch of the village.Also, they have decided to make a new school in remembrance of the best Sarpanch this village had in years, your father, Kamat.'
p3
aa.(lp0
S'action'
p1
a(lp2
I10
aS''
p3
aa.